
CH32X035F8U6.elf:     file format elf32-littleriscv
CH32X035F8U6.elf
architecture: riscv:rv32, flags 0x00000112:
EXEC_P, HAS_SYMS, D_PAGED
start address 0x00000000

Program Header:
0x70000003 off    0x0001a100 vaddr 0x00000000 paddr 0x00000000 align 2**0
         filesz 0x0000003a memsz 0x00000000 flags r--
    LOAD off    0x00001000 vaddr 0x00000000 paddr 0x00000000 align 2**12
         filesz 0x00004778 memsz 0x00004778 flags r-x
    LOAD off    0x00006000 vaddr 0x20000000 paddr 0x00004778 align 2**12
         filesz 0x000001c8 memsz 0x00000324 flags rw-
    LOAD off    0x00000800 vaddr 0x20004800 paddr 0x20004800 align 2**12
         filesz 0x00000000 memsz 0x00000800 flags rw-

Sections:
Idx Name          Size      VMA       LMA       File off  Algn
  0 .init         00000004  00000000  00000000  00001000  2**1
                  CONTENTS, ALLOC, LOAD, READONLY, CODE
  1 .vector       000000fc  00000004  00000004  00001004  2**1
                  CONTENTS, ALLOC, LOAD, READONLY, CODE
  2 .text         00004678  00000100  00000100  00001100  2**2
                  CONTENTS, ALLOC, LOAD, READONLY, CODE
  3 .fini         00000000  00004778  00004778  000061c8  2**0
                  CONTENTS, ALLOC, LOAD, CODE
  4 .dalign       00000000  20000000  20000000  000061c8  2**0
                  CONTENTS
  5 .dlalign      00000000  00004778  00004778  000061c8  2**0
                  CONTENTS
  6 .data         000001c8  20000000  00004778  00006000  2**2
                  CONTENTS, ALLOC, LOAD, DATA
  7 .bss          0000015c  200001c8  00004940  000061c8  2**2
                  ALLOC
  8 .stack        00000800  20004800  20004800  00006800  2**0
                  ALLOC
  9 .debug_info   000073e0  00000000  00000000  000061c8  2**0
                  CONTENTS, READONLY, DEBUGGING, OCTETS
 10 .debug_abbrev 00001bea  00000000  00000000  0000d5a8  2**0
                  CONTENTS, READONLY, DEBUGGING, OCTETS
 11 .debug_aranges 00000850  00000000  00000000  0000f198  2**3
                  CONTENTS, READONLY, DEBUGGING, OCTETS
 12 .debug_rnglists 00000857  00000000  00000000  0000f9e8  2**0
                  CONTENTS, READONLY, DEBUGGING, OCTETS
 13 .debug_line   000070bb  00000000  00000000  0001023f  2**0
                  CONTENTS, READONLY, DEBUGGING, OCTETS
 14 .debug_str    00002755  00000000  00000000  000172fa  2**0
                  CONTENTS, READONLY, DEBUGGING, OCTETS
 15 .debug_line_str 00000680  00000000  00000000  00019a4f  2**0
                  CONTENTS, READONLY, DEBUGGING, OCTETS
 16 .comment      00000031  00000000  00000000  0001a0cf  2**0
                  CONTENTS, READONLY
 17 .riscv.attributes 0000003a  00000000  00000000  0001a100  2**0
                  CONTENTS, READONLY
 18 .debug_frame  00001f3c  00000000  00000000  0001a13c  2**2
                  CONTENTS, READONLY, DEBUGGING, OCTETS
SYMBOL TABLE:
00000000 l    d  .init	00000000 .init
00000004 l    d  .vector	00000000 .vector
00000100 l    d  .text	00000000 .text
00004778 l    d  .fini	00000000 .fini
20000000 l    d  .dalign	00000000 .dalign
00004778 l    d  .dlalign	00000000 .dlalign
20000000 l    d  .data	00000000 .data
200001c8 l    d  .bss	00000000 .bss
20004800 l    d  .stack	00000000 .stack
00000000 l    d  .debug_info	00000000 .debug_info
00000000 l    d  .debug_abbrev	00000000 .debug_abbrev
00000000 l    d  .debug_aranges	00000000 .debug_aranges
00000000 l    d  .debug_rnglists	00000000 .debug_rnglists
00000000 l    d  .debug_line	00000000 .debug_line
00000000 l    d  .debug_str	00000000 .debug_str
00000000 l    d  .debug_line_str	00000000 .debug_line_str
00000000 l    d  .comment	00000000 .comment
00000000 l    d  .riscv.attributes	00000000 .riscv.attributes
00000000 l    d  .debug_frame	00000000 .debug_frame
00000000 l    df *ABS*	00000000 startup_ch32x035.o
00000004 l       .vector	00000000 _vector_base
00000000 l    df *ABS*	00000000 lib_a-memcpy-asm.o
00000000 l    df *ABS*	00000000 lib_a-strcmp.o
00000000 l    df *ABS*	00000000 lib_a-memset.o
00000000 l    df *ABS*	00000000 button.c
00000000 l    df *ABS*	00000000 ch32x035_it.c
00000000 l    df *ABS*	00000000 ch32x035_usbfs_device.c
00000000 l    df *ABS*	00000000 main.c
00000000 l    df *ABS*	00000000 system_ch32x035.c
0000176a l     F .text	00000014 SetSysClock
0000177e l     F .text	00000048 SetSysClockTo48_HSI
00000000 l    df *ABS*	00000000 usbd_compostie_km.c
200001f4 l     O .bss	00000004 tim3_millis
00000000 l    df *ABS*	00000000 ch32x035_dbgmcu.c
00000000 l    df *ABS*	00000000 ch32x035_exti.c
00000000 l    df *ABS*	00000000 ch32x035_gpio.c
00000000 l    df *ABS*	00000000 ch32x035_misc.c
00000000 l    df *ABS*	00000000 ch32x035_pwr.c
00000000 l    df *ABS*	00000000 ch32x035_rcc.c
20000138 l     O .data	00000010 APBAHBPrescTable
00000000 l    df *ABS*	00000000 ch32x035_tim.c
00000000 l    df *ABS*	00000000 ch32x035_usart.c
00000000 l    df *ABS*	00000000 debug.c
200001fc l     O .bss	00000001 p_us
200001fe l     O .bss	00000002 p_ms
200001b8 l     O .data	00000004 curbrk.0
00000000 l    df *ABS*	00000000 lib_a-printf.o
00000000 l    df *ABS*	00000000 lib_a-puts.o
00000000 l    df *ABS*	00000000 lib_a-wbuf.o
00000000 l    df *ABS*	00000000 lib_a-wsetup.o
00000000 l    df *ABS*	00000000 lib_a-fflush.o
00000000 l    df *ABS*	00000000 lib_a-findfp.o
00003524 l     F .text	00000066 std
00000000 l    df *ABS*	00000000 lib_a-fwalk.o
00000000 l    df *ABS*	00000000 lib_a-lock.o
00000000 l    df *ABS*	00000000 lib_a-makebuf.o
00000000 l    df *ABS*	00000000 lib_a-nano-freer.o
00000000 l    df *ABS*	00000000 lib_a-nano-mallocr.o
000038f6 l     F .text	00000054 sbrk_aligned
00000000 l    df *ABS*	00000000 lib_a-nano-vfprintf.o
00003a52 l     F .text	00000028 __sfputc_r
00000000 l    df *ABS*	00000000 lib_a-sbrkr.o
00000000 l    df *ABS*	00000000 lib_a-stdio.o
00000000 l    df *ABS*	00000000 lib_a-writer.o
00000000 l    df *ABS*	00000000 lib_a-closer.o
00000000 l    df *ABS*	00000000 lib_a-fstatr.o
00000000 l    df *ABS*	00000000 lib_a-isattyr.o
00000000 l    df *ABS*	00000000 lib_a-lseekr.o
00000000 l    df *ABS*	00000000 lib_a-memchr.o
00000000 l    df *ABS*	00000000 lib_a-mlock.o
00000000 l    df *ABS*	00000000 lib_a-nano-vfprintf_i.o
00000000 l    df *ABS*	00000000 lib_a-readr.o
00000000 l    df *ABS*	00000000 close.o
00000000 l    df *ABS*	00000000 fstat.o
00000000 l    df *ABS*	00000000 isatty.o
00000000 l    df *ABS*	00000000 lseek.o
00000000 l    df *ABS*	00000000 read.o
00000000 l    df *ABS*	00000000 usb_desc.c
00000000 l    df *ABS*	00000000 lib_a-impure.o
20000148 l     O .data	00000060 impure_data
00003ec4 g     F .text	00000026 _isatty_r
0000466c g     O .text	00000016 MySerNumInfo
200001ce g     O .bss	00000002 USBFS_SetupReqValue
000030b6 g     F .text	00000104 _puts_r
00001c86 g     F .text	00000044 USB_Sleep_Wakeup_CFG
000001b8 g     F .text	0000001a button_enable
0000196e g     F .text	000000a4 btn_dash_callback
00003eea g     F .text	0000002a _lseek_r
0000307c g     F .text	0000003a printf
200009a8 g       .data	00000000 __global_pointer$
00001d60  w      .text	00000000 TIM1_CC_IRQHandler
00001d62  w      .text	00000000 TIM2_UP_IRQHandler
00003e14 g     F .text	00000030 __sseek
000035f2 g     F .text	00000068 __sinit
000031c2 g     F .text	000000bc __swbuf_r
000002fc g     F .text	00000018 HardFault_Handler
00003594 g     F .text	00000046 __sfmoreglue
200001ac g     O .data	00000004 CFGHR_tmpA
000014ce g     F .text	000000f4 USBFS_Send_Resume
00003f34 g     F .text	00000008 __malloc_unlock
00001d78  w      .text	00000000 USBPD_IRQHandler
00001d34  w      .text	00000000 SysTick_Handler
000024f2 g     F .text	000000fc NVIC_Init
00001d3a  w      .text	00000000 PVD_IRQHandler
000002f4 g     F .text	00000008 NMI_Handler
0000013a g     F .text	0000007e button_init
00001e0a g     F .text	00000018 DBGMCU_GetCHIPID
00000314 g     F .text	00000022 USBFS_RCC_Init
0000279a g     F .text	00000040 PWR_VDD_SupplyVoltage
00002da0 g     F .text	00000042 USART_GetFlagStatus
00003e9c g     F .text	00000028 _fstat_r
20000214 g     O .bss	00000004 errno
200001c8 g       .bss	00000000 _sbss
00000800 g       *ABS*	00000000 __stack_size
200001d2 g     O .bss	00000002 USBFS_SetupReqLen
00002f28 g     F .text	00000084 USART_Printf_Init
00001d68  w      .text	00000000 EXTI25_16_IRQHandler
00000898 g     F .text	00000c36 USBFS_IRQHandler
0000457c g     O .text	00000012 MyDevDescr
00000100 g     F .text	00000016 memcpy
0000358a g     F .text	0000000a _cleanup_r
200001dc g     O .bss	00000002 USBFS_HidProtocol
00002a1e g     F .text	00000050 TIM_Cmd
000031ba g     F .text	00000008 puts
200001a8 g     O .data	00000004 SystemCoreClock
20000258 g     O .bss	00000040 USBFS_EP1_Buf
000042fe g     F .text	0000000c _fstat
00000004 g       .init	00000000 _einit
00002b3c g     F .text	0000002c TIM_ClearITPendingBit
000028c6 g     F .text	00000046 RCC_APB2PeriphClockCmd
00001fea g     F .text	000003c0 GPIO_Init
00001d32  w      .text	00000000 Break_Point_Handler
00001d7e  w      .text	00000000 TIM2_TRG_COM_IRQHandler
00001d7c  w      .text	00000000 TIM2_CC_IRQHandler
200001f8 g     O .bss	00000004 NVIC_Priority_Group
00001d58  w      .text	00000000 SPI1_IRQHandler
00002d1c g     F .text	00000058 USART_Cmd
00003d78 g     F .text	00000028 _sbrk_r
200001c0 g     O .data	00000004 MyLangDescr
00001d40  w      .text	00000000 AWU_IRQHandler
00001d3e  w      .text	00000000 EXTI7_0_IRQHandler
000042c8 g     F .text	0000002a _read_r
000045cc g     O .text	0000003e KeyRepDesc
0000290c g     F .text	00000046 RCC_APB1PeriphClockCmd
00001d2e  w      .text	00000000 Ecall_M_Mode_Handler
00004590 g     O .text	0000003b MyCfgDescr
20004800 g       .stack	00000000 _heap_end
0000430a g     F .text	0000000c _isatty
200001e8 g     O .bss	00000008 KB_Data_Pack
20000208 g     O .bss	00000001 __lock___sinit_recursive_mutex
00002e24 g     F .text	00000082 Delay_Us
200001c4 g     O .data	00000004 _global_impure_ptr
00002880 g     F .text	00000046 RCC_AHBPeriphClockCmd
00001d48  w      .text	00000000 DMA1_Channel4_IRQHandler
00001d50  w      .text	00000000 ADC1_IRQHandler
00003022 g     F .text	0000005a _sbrk
00001d80  w      .text	00000000 TIM2_BRK_IRQHandler
00004640 g     O .text	0000000e MyManuInfo
00001d6a  w      .text	00000000 USART3_IRQHandler
200001d4 g     O .bss	00000001 USBFS_DevConfig
20000324 g       .bss	00000000 _ebss
200002f4 g     O .bss	0000001c btn_dash
00001d4e  w      .text	00000000 DMA1_Channel7_IRQHandler
00002de2 g     F .text	00000042 Delay_Init
20000200 g     O .bss	00000001 __lock___malloc_recursive_mutex
00001d7a  w      .text	00000000 USBPDWakeUp_IRQHandler
00001d66  w      .text	00000000 EXTI15_8_IRQHandler
000018ca g     F .text	000000a4 btn_dot_callback
000023e2 g     F .text	00000034 GPIO_SetBits
200001d0 g     O .bss	00000002 USBFS_SetupReqIndex
00001f92 g     F .text	00000038 EXTI_GetFlagStatus
200001cd g     O .bss	00000001 USBFS_SetupReqType
00004684 g     O .text	00000020 __sf_fake_stderr
00001d52  w      .text	00000000 I2C1_EV_IRQHandler
0000376c g     F .text	00000002 __retarget_lock_release_recursive
00001d6c  w      .text	00000000 USART4_IRQHandler
00002ad4 g     F .text	00000068 TIM_GetITStatus
200001e0 g     O .bss	00000008 USBFS_Endp_Busy
000027da g     F .text	000000a6 RCC_GetClocksFreq
200002d8 g     O .bss	0000001c btn_dot
00001d4c  w      .text	00000000 DMA1_Channel6_IRQHandler
00003a7a g     F .text	00000040 __sfputs_r
000035da g     F .text	00000006 __sfp_lock_acquire
00003f14 g     F .text	00000018 memchr
00002b68 g     F .text	000001b4 USART_Init
00003858 g     F .text	0000009e _free_r
0000186e g     F .text	0000005c TIM3_IRQHandler
20000010 g     O .data	00000128 morse_dict
00001d5e  w      .text	00000000 TIM1_TRG_COM_IRQHandler
200001b4 g     O .data	00000004 CFGHR_tmpC
00001d42  w      .text	00000000 DMA1_Channel1_IRQHandler
00000000 g       .init	00000000 _start
20000310 g     O .bss	00000014 my_morse
20000000 g     O .data	00000010 AHBPrescTable
00001fca g     F .text	00000020 EXTI_ClearFlag
00004316 g     F .text	0000000c _lseek
00000556 g     F .text	00000342 USBFS_Endp_DataUp
00002a6e g     F .text	00000066 TIM_ITConfig
00001e22 g     F .text	00000170 EXTI_Init
200001cc g     O .bss	00000001 USBFS_SetupReqCode
20000298 g     O .bss	00000040 USBFS_EP2_Buf
00001d6e  w      .text	00000000 DMA1_Channel8_IRQHandler
00002416 g     F .text	00000020 GPIO_ResetBits
200001d7 g     O .bss	00000001 USBFS_DevEnumStatus
00003e76 g     F .text	00000026 _close_r
20000000 g       .dalign	00000000 _data_vma
0000460c g     O .text	00000034 MouseRepDesc
0000327e g     F .text	000000ee __swsetup_r
00001d74  w      .text	00000000 PIOC_IRQHandler
0000365a g     F .text	000000a6 __sfp
00002436 g     F .text	000000a2 GPIO_EXTILineConfig
000035ec g     F .text	00000006 __sinit_lock_release
200001d5 g     O .bss	00000001 USBFS_DevAddr
00003da0 g     F .text	0000002c __sread
00001ae6 g     F .text	00000092 KB_Sleep_Wakeup_Cfg
00003f2c g     F .text	00000008 __malloc_lock
0000349e g     F .text	00000086 _fflush_r
00001b78 g     F .text	0000006a morse_to_char
00001a12 g     F .text	00000022 btn_dot_read
000046c4 g     O .text	00000020 __sf_fake_stdin
00002632 g     F .text	00000134 PWR_EnterSTOPMode
0000376a g     F .text	00000002 __retarget_lock_acquire_recursive
0000012a g     F .text	00000010 memset
000015c2 g     F .text	000000e0 main
000017c6 g     F .text	000000a8 TIM3_Init
00001a56 g     F .text	00000090 KB_Scan_Init
00003768 g     F .text	00000002 __retarget_lock_init_recursive
00003e44 g     F .text	00000006 __sclose
0000394a g     F .text	00000108 _malloc_r
200001d6 g     O .bss	00000001 USBFS_DevSleepStatus
00001d4a  w      .text	00000000 DMA1_Channel5_IRQHandler
00002ea6 g     F .text	00000082 Delay_Ms
00000434 g     F .text	00000122 USBFS_Device_Init
00004650 g     O .text	0000001a MyProdInfo
200001b0 g     O .data	00000004 CFGHR_tmpB
00000116 g     F .text	00000014 strcmp
00000336 g     F .text	000000a0 USBFS_Device_Endp_Init
000016a2 g     F .text	0000004a SystemInit
0000307c g     F .text	0000003a iprintf
00000000 g       .init	00000000 _sinit
00003e4a g     F .text	0000002c _write_r
00001d46  w      .text	00000000 DMA1_Channel3_IRQHandler
00003f3c g     F .text	00000110 _printf_common
200001bc g     O .data	00000004 _impure_ptr
00001d5c  w      .text	00000000 TIM1_UP_IRQHandler
0000336c g     F .text	00000132 __sflush_r
00001d38  w      .text	00000000 WWDG_IRQHandler
00001d30  w      .text	00000000 Ecall_U_Mode_Handler
20005000 g       .stack	00000000 _eusrstack
00001d36  w      .text	00000000 SW_Handler
200001d8 g     O .bss	00000002 USBFS_HidIdle
00001d5a  w      .text	00000000 TIM1_BRK_IRQHandler
0000376e g     F .text	00000058 __swhatbuf_r
00002d74 g     F .text	0000002c USART_SendData
00001d76  w      .text	00000000 OPA_IRQHandler
00002fac g     F .text	00000076 _write
20000218 g     O .bss	00000040 USBFS_EP0_Buf
200001c8 g       .data	00000000 _edata
00001a34 g     F .text	00000022 btn_dash_read
200001c8 g     O .bss	00000004 pUSBFS_Descr
20000324 g       .bss	00000000 _end
200001f0 g     O .bss	00000001 KB_LED_Cur_Status
00002952 g     F .text	000000cc TIM_TimeBaseInit
00002766 g     F .text	00000034 PWR_GetFlagStatus
00004778 g       .dlalign	00000000 _data_lma
00001d64  w      .text	00000000 USART2_IRQHandler
00003dcc g     F .text	00000048 __swrite
000025ee g     F .text	00000044 PWR_PVDLevelConfig
00003aba g     F .text	000002be _vfiprintf_r
00003700 g     F .text	00000068 _fwalk_reent
000016ec g     F .text	0000007e SystemCoreClockUpdate
00001d44  w      .text	00000000 DMA1_Channel2_IRQHandler
000035e0 g     F .text	00000006 __sfp_lock_release
000046a4 g     O .text	00000020 __sf_fake_stdout
00004322 g     F .text	0000000c _read
00001d84  w      .text	00000000 handle_reset
00001d3c  w      .text	00000000 FLASH_IRQHandler
00001d72  w      .text	00000000 USBFSWakeUp_IRQHandler
00001d56  w      .text	00000000 USART1_IRQHandler
000037c6 g     F .text	00000092 __smakebuf_r
0000404c g     F .text	0000027c _printf_i
000001d2 g     F .text	00000122 button_timer_polling
00001cca g     F .text	00000060 MCU_Sleep_Wakeup_Operate
2000020c g     O .bss	00000004 __malloc_sbrk_start
00001d54  w      .text	00000000 I2C1_ER_IRQHandler
000024d8 g     F .text	0000001a NVIC_PriorityGroupConfig
20000210 g     O .bss	00000004 __malloc_free_list
00003aba g     F .text	000002be _vfprintf_r
000003d6 g     F .text	0000005e GPIO_USB_INIT
000023aa g     F .text	00000038 GPIO_ReadInputDataBit
20000204 g     O .bss	00000001 __lock___sfp_recursive_mutex
000042f2 g     F .text	0000000c _close
00001be2 g     F .text	000000a4 KB_Scan_Handle
000035e6 g     F .text	00000006 __sinit_lock_acquire



Disassembly of section .init:

00000000 <_sinit>:
   0:	5850106f          	j	1d84 <handle_reset>

Disassembly of section .vector:

00000004 <_vector_base>:
	...
   c:	000002f4          	.word	0x000002f4
  10:	000002fc          	.word	0x000002fc
  14:	00000000          	.word	0x00000000
  18:	00001d2e          	.word	0x00001d2e
	...
  24:	00001d30          	.word	0x00001d30
  28:	00001d32          	.word	0x00001d32
	...
  34:	00001d34          	.word	0x00001d34
  38:	00000000          	.word	0x00000000
  3c:	00001d36          	.word	0x00001d36
  40:	00000000          	.word	0x00000000
  44:	00001d38          	.word	0x00001d38
  48:	00001d3a          	.word	0x00001d3a
  4c:	00001d3c          	.word	0x00001d3c
  50:	00000000          	.word	0x00000000
  54:	00001d3e          	.word	0x00001d3e
  58:	00001d40          	.word	0x00001d40
  5c:	00001d42          	.word	0x00001d42
  60:	00001d44          	.word	0x00001d44
  64:	00001d46          	.word	0x00001d46
  68:	00001d48          	.word	0x00001d48
  6c:	00001d4a          	.word	0x00001d4a
  70:	00001d4c          	.word	0x00001d4c
  74:	00001d4e          	.word	0x00001d4e
  78:	00001d50          	.word	0x00001d50
  7c:	00001d52          	.word	0x00001d52
  80:	00001d54          	.word	0x00001d54
  84:	00001d56          	.word	0x00001d56
  88:	00001d58          	.word	0x00001d58
  8c:	00001d5a          	.word	0x00001d5a
  90:	00001d5c          	.word	0x00001d5c
  94:	00001d5e          	.word	0x00001d5e
  98:	00001d60          	.word	0x00001d60
  9c:	00001d62          	.word	0x00001d62
  a0:	00001d64          	.word	0x00001d64
  a4:	00001d66          	.word	0x00001d66
  a8:	00001d68          	.word	0x00001d68
  ac:	00001d6a          	.word	0x00001d6a
  b0:	00001d6c          	.word	0x00001d6c
  b4:	00001d6e          	.word	0x00001d6e
  b8:	00000898          	.word	0x00000898
  bc:	00001d72          	.word	0x00001d72
  c0:	00001d74          	.word	0x00001d74
  c4:	00001d76          	.word	0x00001d76
  c8:	00001d78          	.word	0x00001d78
  cc:	00001d7a          	.word	0x00001d7a
  d0:	00001d7c          	.word	0x00001d7c
  d4:	00001d7e          	.word	0x00001d7e
  d8:	00001d80          	.word	0x00001d80
  dc:	0000186e          	.word	0x0000186e
	...

Disassembly of section .text:

00000100 <memcpy>:
     100:	832a                	mv	t1,a0
     102:	ca09                	beqz	a2,114 <memcpy+0x14>
     104:	00058383          	lb	t2,0(a1)
     108:	00730023          	sb	t2,0(t1)
     10c:	167d                	addi	a2,a2,-1
     10e:	0305                	addi	t1,t1,1
     110:	0585                	addi	a1,a1,1
     112:	fa6d                	bnez	a2,104 <memcpy+0x4>
     114:	8082                	ret

00000116 <strcmp>:
     116:	2110                	lbu	a2,0(a0)
     118:	2194                	lbu	a3,0(a1)
     11a:	0505                	addi	a0,a0,1
     11c:	0585                	addi	a1,a1,1
     11e:	00d61363          	bne	a2,a3,124 <strcmp+0xe>
     122:	fa75                	bnez	a2,116 <strcmp>
     124:	40d60533          	sub	a0,a2,a3
     128:	8082                	ret

0000012a <memset>:
     12a:	832a                	mv	t1,a0
     12c:	c611                	beqz	a2,138 <memset+0xe>
     12e:	00b30023          	sb	a1,0(t1)
     132:	167d                	addi	a2,a2,-1
     134:	0305                	addi	t1,t1,1
     136:	fe65                	bnez	a2,12e <memset+0x4>
     138:	8082                	ret

0000013a <button_init>:
     13a:	7179                	addi	sp,sp,-48
     13c:	d622                	sw	s0,44(sp)
     13e:	1800                	addi	s0,sp,48
     140:	fea42623          	sw	a0,-20(s0)
     144:	feb42423          	sw	a1,-24(s0)
     148:	87b2                	mv	a5,a2
     14a:	fed42023          	sw	a3,-32(s0)
     14e:	fce42e23          	sw	a4,-36(s0)
     152:	fef403a3          	sb	a5,-25(s0)
     156:	fec42783          	lw	a5,-20(s0)
     15a:	000780a3          	sb	zero,1(a5)
     15e:	fec42783          	lw	a5,-20(s0)
     162:	0007a423          	sw	zero,8(a5)
     166:	fec42783          	lw	a5,-20(s0)
     16a:	fe842703          	lw	a4,-24(s0)
     16e:	c7d8                	sw	a4,12(a5)
     170:	fec42783          	lw	a5,-20(s0)
     174:	4709                	li	a4,2
     176:	a3b8                	sb	a4,2(a5)
     178:	fec42783          	lw	a5,-20(s0)
     17c:	fe744703          	lbu	a4,-25(s0)
     180:	a3d8                	sb	a4,4(a5)
     182:	fec42783          	lw	a5,-20(s0)
     186:	fe042703          	lw	a4,-32(s0)
     18a:	cbd8                	sw	a4,20(a5)
     18c:	fec42783          	lw	a5,-20(s0)
     190:	fdc42703          	lw	a4,-36(s0)
     194:	cf98                	sw	a4,24(a5)
     196:	fec42783          	lw	a5,-20(s0)
     19a:	4bdc                	lw	a5,20(a5)
     19c:	e399                	bnez	a5,1a2 <button_init+0x68>
     19e:	4785                	li	a5,1
     1a0:	a801                	j	1b0 <button_init+0x76>
     1a2:	fec42783          	lw	a5,-20(s0)
     1a6:	4f9c                	lw	a5,24(a5)
     1a8:	e399                	bnez	a5,1ae <button_init+0x74>
     1aa:	4785                	li	a5,1
     1ac:	a011                	j	1b0 <button_init+0x76>
     1ae:	4781                	li	a5,0
     1b0:	853e                	mv	a0,a5
     1b2:	5432                	lw	s0,44(sp)
     1b4:	6145                	addi	sp,sp,48
     1b6:	8082                	ret

000001b8 <button_enable>:
     1b8:	1101                	addi	sp,sp,-32
     1ba:	ce22                	sw	s0,28(sp)
     1bc:	1000                	addi	s0,sp,32
     1be:	fea42623          	sw	a0,-20(s0)
     1c2:	fec42783          	lw	a5,-20(s0)
     1c6:	4705                	li	a4,1
     1c8:	b398                	sb	a4,1(a5)
     1ca:	0001                	nop
     1cc:	4472                	lw	s0,28(sp)
     1ce:	6105                	addi	sp,sp,32
     1d0:	8082                	ret

000001d2 <button_timer_polling>:
     1d2:	7179                	addi	sp,sp,-48
     1d4:	d606                	sw	ra,44(sp)
     1d6:	d422                	sw	s0,40(sp)
     1d8:	1800                	addi	s0,sp,48
     1da:	fca42e23          	sw	a0,-36(s0)
     1de:	fdc42783          	lw	a5,-36(s0)
     1e2:	3398                	lbu	a4,1(a5)
     1e4:	4785                	li	a5,1
     1e6:	10f71263          	bne	a4,a5,2ea <button_timer_polling+0x118>
     1ea:	fdc42783          	lw	a5,-36(s0)
     1ee:	4bdc                	lw	a5,20(a5)
     1f0:	9782                	jalr	a5
     1f2:	87aa                	mv	a5,a0
     1f4:	fef407a3          	sb	a5,-17(s0)
     1f8:	fdc42783          	lw	a5,-36(s0)
     1fc:	23dc                	lbu	a5,4(a5)
     1fe:	fef44703          	lbu	a4,-17(s0)
     202:	0af71463          	bne	a4,a5,2aa <button_timer_polling+0xd8>
     206:	fdc42783          	lw	a5,-36(s0)
     20a:	33b8                	lbu	a4,3(a5)
     20c:	4785                	li	a5,1
     20e:	0cf71e63          	bne	a4,a5,2ea <button_timer_polling+0x118>
     212:	fdc42783          	lw	a5,-36(s0)
     216:	4798                	lw	a4,8(a5)
     218:	fdc42783          	lw	a5,-36(s0)
     21c:	47dc                	lw	a5,12(a5)
     21e:	973e                	add	a4,a4,a5
     220:	fdc42783          	lw	a5,-36(s0)
     224:	c798                	sw	a4,8(a5)
     226:	fdc42783          	lw	a5,-36(s0)
     22a:	4798                	lw	a4,8(a5)
     22c:	6785                	lui	a5,0x1
     22e:	bb878793          	addi	a5,a5,-1096 # bb8 <USBFS_IRQHandler+0x320>
     232:	02f71f63          	bne	a4,a5,270 <button_timer_polling+0x9e>
     236:	fdc42783          	lw	a5,-36(s0)
     23a:	23b8                	lbu	a4,2(a5)
     23c:	4785                	li	a5,1
     23e:	02f70963          	beq	a4,a5,270 <button_timer_polling+0x9e>
     242:	fdc42783          	lw	a5,-36(s0)
     246:	000780a3          	sb	zero,1(a5)
     24a:	fdc42783          	lw	a5,-36(s0)
     24e:	4705                	li	a4,1
     250:	a3b8                	sb	a4,2(a5)
     252:	fdc42783          	lw	a5,-36(s0)
     256:	4f9c                	lw	a5,24(a5)
     258:	fdc42503          	lw	a0,-36(s0)
     25c:	9782                	jalr	a5
     25e:	fdc42783          	lw	a5,-36(s0)
     262:	00078123          	sb	zero,2(a5)
     266:	fdc42783          	lw	a5,-36(s0)
     26a:	4705                	li	a4,1
     26c:	b398                	sb	a4,1(a5)
     26e:	a8b5                	j	2ea <button_timer_polling+0x118>
     270:	fdc42783          	lw	a5,-36(s0)
     274:	4798                	lw	a4,8(a5)
     276:	47cd                	li	a5,19
     278:	06e7f963          	bgeu	a5,a4,2ea <button_timer_polling+0x118>
     27c:	fdc42783          	lw	a5,-36(s0)
     280:	23bc                	lbu	a5,2(a5)
     282:	c7a5                	beqz	a5,2ea <button_timer_polling+0x118>
     284:	fdc42783          	lw	a5,-36(s0)
     288:	000780a3          	sb	zero,1(a5)
     28c:	fdc42783          	lw	a5,-36(s0)
     290:	00078123          	sb	zero,2(a5)
     294:	fdc42783          	lw	a5,-36(s0)
     298:	4f9c                	lw	a5,24(a5)
     29a:	fdc42503          	lw	a0,-36(s0)
     29e:	9782                	jalr	a5
     2a0:	fdc42783          	lw	a5,-36(s0)
     2a4:	4705                	li	a4,1
     2a6:	b398                	sb	a4,1(a5)
     2a8:	a089                	j	2ea <button_timer_polling+0x118>
     2aa:	fdc42783          	lw	a5,-36(s0)
     2ae:	4709                	li	a4,2
     2b0:	a3b8                	sb	a4,2(a5)
     2b2:	fdc42783          	lw	a5,-36(s0)
     2b6:	4798                	lw	a4,8(a5)
     2b8:	47d1                	li	a5,20
     2ba:	00e7fc63          	bgeu	a5,a4,2d2 <button_timer_polling+0x100>
     2be:	fdc42783          	lw	a5,-36(s0)
     2c2:	000780a3          	sb	zero,1(a5)
     2c6:	fdc42783          	lw	a5,-36(s0)
     2ca:	4f9c                	lw	a5,24(a5)
     2cc:	fdc42503          	lw	a0,-36(s0)
     2d0:	9782                	jalr	a5
     2d2:	fdc42783          	lw	a5,-36(s0)
     2d6:	0007a423          	sw	zero,8(a5)
     2da:	fdc42783          	lw	a5,-36(s0)
     2de:	4705                	li	a4,1
     2e0:	b3b8                	sb	a4,3(a5)
     2e2:	fdc42783          	lw	a5,-36(s0)
     2e6:	4705                	li	a4,1
     2e8:	b398                	sb	a4,1(a5)
     2ea:	0001                	nop
     2ec:	50b2                	lw	ra,44(sp)
     2ee:	5422                	lw	s0,40(sp)
     2f0:	6145                	addi	sp,sp,48
     2f2:	8082                	ret

000002f4 <NMI_Handler>:
     2f4:	1141                	addi	sp,sp,-16
     2f6:	c622                	sw	s0,12(sp)
     2f8:	0800                	addi	s0,sp,16
     2fa:	a001                	j	2fa <NMI_Handler+0x6>

000002fc <HardFault_Handler>:
     2fc:	1141                	addi	sp,sp,-16
     2fe:	c622                	sw	s0,12(sp)
     300:	0800                	addi	s0,sp,16
     302:	e000e7b7          	lui	a5,0xe000e
     306:	beef0737          	lui	a4,0xbeef0
     30a:	08070713          	addi	a4,a4,128 # beef0080 <_eusrstack+0x9eeeb080>
     30e:	c7b8                	sw	a4,72(a5)
     310:	0001                	nop
     312:	a001                	j	312 <HardFault_Handler+0x16>

00000314 <USBFS_RCC_Init>:
     314:	1141                	addi	sp,sp,-16
     316:	c606                	sw	ra,12(sp)
     318:	c422                	sw	s0,8(sp)
     31a:	0800                	addi	s0,sp,16
     31c:	4585                	li	a1,1
     31e:	4505                	li	a0,1
     320:	5a6020ef          	jal	ra,28c6 <RCC_APB2PeriphClockCmd>
     324:	4585                	li	a1,1
     326:	6505                	lui	a0,0x1
     328:	558020ef          	jal	ra,2880 <RCC_AHBPeriphClockCmd>
     32c:	0001                	nop
     32e:	40b2                	lw	ra,12(sp)
     330:	4422                	lw	s0,8(sp)
     332:	0141                	addi	sp,sp,16
     334:	8082                	ret

00000336 <USBFS_Device_Endp_Init>:
     336:	1101                	addi	sp,sp,-32
     338:	ce22                	sw	s0,28(sp)
     33a:	1000                	addi	s0,sp,32
     33c:	400237b7          	lui	a5,0x40023
     340:	40078793          	addi	a5,a5,1024 # 40023400 <_eusrstack+0x2001e400>
     344:	04000713          	li	a4,64
     348:	a7d8                	sb	a4,12(a5)
     34a:	400237b7          	lui	a5,0x40023
     34e:	40078793          	addi	a5,a5,1024 # 40023400 <_eusrstack+0x2001e400>
     352:	4711                	li	a4,4
     354:	b7d8                	sb	a4,13(a5)
     356:	400237b7          	lui	a5,0x40023
     35a:	40078793          	addi	a5,a5,1024 # 40023400 <_eusrstack+0x2001e400>
     35e:	87018713          	addi	a4,gp,-1936 # 20000218 <USBFS_EP0_Buf>
     362:	cb98                	sw	a4,16(a5)
     364:	400237b7          	lui	a5,0x40023
     368:	40078793          	addi	a5,a5,1024 # 40023400 <_eusrstack+0x2001e400>
     36c:	8b018713          	addi	a4,gp,-1872 # 20000258 <USBFS_EP1_Buf>
     370:	cbd8                	sw	a4,20(a5)
     372:	400237b7          	lui	a5,0x40023
     376:	40078793          	addi	a5,a5,1024 # 40023400 <_eusrstack+0x2001e400>
     37a:	8f018713          	addi	a4,gp,-1808 # 20000298 <USBFS_EP2_Buf>
     37e:	cf98                	sw	a4,24(a5)
     380:	400237b7          	lui	a5,0x40023
     384:	40078793          	addi	a5,a5,1024 # 40023400 <_eusrstack+0x2001e400>
     388:	4709                	li	a4,2
     38a:	b3ba                	sh	a4,34(a5)
     38c:	400237b7          	lui	a5,0x40023
     390:	40078793          	addi	a5,a5,1024 # 40023400 <_eusrstack+0x2001e400>
     394:	4709                	li	a4,2
     396:	b3fa                	sh	a4,38(a5)
     398:	400237b7          	lui	a5,0x40023
     39c:	40078793          	addi	a5,a5,1024 # 40023400 <_eusrstack+0x2001e400>
     3a0:	4709                	li	a4,2
     3a2:	b7ba                	sh	a4,42(a5)
     3a4:	fe0407a3          	sb	zero,-17(s0)
     3a8:	a829                	j	3c2 <USBFS_Device_Endp_Init+0x8c>
     3aa:	fef44783          	lbu	a5,-17(s0)
     3ae:	83818713          	addi	a4,gp,-1992 # 200001e0 <USBFS_Endp_Busy>
     3b2:	97ba                	add	a5,a5,a4
     3b4:	00078023          	sb	zero,0(a5)
     3b8:	fef44783          	lbu	a5,-17(s0)
     3bc:	0785                	addi	a5,a5,1
     3be:	fef407a3          	sb	a5,-17(s0)
     3c2:	fef44703          	lbu	a4,-17(s0)
     3c6:	479d                	li	a5,7
     3c8:	fee7f1e3          	bgeu	a5,a4,3aa <USBFS_Device_Endp_Init+0x74>
     3cc:	0001                	nop
     3ce:	0001                	nop
     3d0:	4472                	lw	s0,28(sp)
     3d2:	6105                	addi	sp,sp,32
     3d4:	8082                	ret

000003d6 <GPIO_USB_INIT>:
     3d6:	1101                	addi	sp,sp,-32
     3d8:	ce06                	sw	ra,28(sp)
     3da:	cc22                	sw	s0,24(sp)
     3dc:	1000                	addi	s0,sp,32
     3de:	fe042223          	sw	zero,-28(s0)
     3e2:	fe042423          	sw	zero,-24(s0)
     3e6:	fe042623          	sw	zero,-20(s0)
     3ea:	4585                	li	a1,1
     3ec:	4541                	li	a0,16
     3ee:	4d8020ef          	jal	ra,28c6 <RCC_APB2PeriphClockCmd>
     3f2:	67c1                	lui	a5,0x10
     3f4:	fef42223          	sw	a5,-28(s0)
     3f8:	4791                	li	a5,4
     3fa:	fef42623          	sw	a5,-20(s0)
     3fe:	fe440793          	addi	a5,s0,-28
     402:	85be                	mv	a1,a5
     404:	40011537          	lui	a0,0x40011
     408:	3e3010ef          	jal	ra,1fea <GPIO_Init>
     40c:	000207b7          	lui	a5,0x20
     410:	fef42223          	sw	a5,-28(s0)
     414:	04800793          	li	a5,72
     418:	fef42623          	sw	a5,-20(s0)
     41c:	fe440793          	addi	a5,s0,-28
     420:	85be                	mv	a1,a5
     422:	40011537          	lui	a0,0x40011
     426:	3c5010ef          	jal	ra,1fea <GPIO_Init>
     42a:	0001                	nop
     42c:	40f2                	lw	ra,28(sp)
     42e:	4462                	lw	s0,24(sp)
     430:	6105                	addi	sp,sp,32
     432:	8082                	ret

00000434 <USBFS_Device_Init>:
     434:	7179                	addi	sp,sp,-48
     436:	d606                	sw	ra,44(sp)
     438:	d422                	sw	s0,40(sp)
     43a:	1800                	addi	s0,sp,48
     43c:	fca42e23          	sw	a0,-36(s0)
     440:	fcb42c23          	sw	a1,-40(s0)
     444:	fdc42783          	lw	a5,-36(s0)
     448:	c7d5                	beqz	a5,4f4 <USBFS_Device_Init+0xc0>
     44a:	3771                	jal	3d6 <GPIO_USB_INIT>
     44c:	fd842783          	lw	a5,-40(s0)
     450:	ef81                	bnez	a5,468 <USBFS_Device_Init+0x34>
     452:	400107b7          	lui	a5,0x40010
     456:	4f9c                	lw	a5,24(a5)
     458:	f307f713          	andi	a4,a5,-208
     45c:	400107b7          	lui	a5,0x40010
     460:	08876713          	ori	a4,a4,136
     464:	cf98                	sw	a4,24(a5)
     466:	a819                	j	47c <USBFS_Device_Init+0x48>
     468:	400107b7          	lui	a5,0x40010
     46c:	4f9c                	lw	a5,24(a5)
     46e:	f307f713          	andi	a4,a5,-208
     472:	400107b7          	lui	a5,0x40010
     476:	0cc76713          	ori	a4,a4,204
     47a:	cf98                	sw	a4,24(a5)
     47c:	400237b7          	lui	a5,0x40023
     480:	40078793          	addi	a5,a5,1024 # 40023400 <_eusrstack+0x2001e400>
     484:	00078023          	sb	zero,0(a5)
     488:	357d                	jal	336 <USBFS_Device_Endp_Init>
     48a:	400237b7          	lui	a5,0x40023
     48e:	40078793          	addi	a5,a5,1024 # 40023400 <_eusrstack+0x2001e400>
     492:	000781a3          	sb	zero,3(a5)
     496:	400237b7          	lui	a5,0x40023
     49a:	40078793          	addi	a5,a5,1024 # 40023400 <_eusrstack+0x2001e400>
     49e:	02900713          	li	a4,41
     4a2:	a398                	sb	a4,0(a5)
     4a4:	400237b7          	lui	a5,0x40023
     4a8:	40078793          	addi	a5,a5,1024 # 40023400 <_eusrstack+0x2001e400>
     4ac:	577d                	li	a4,-1
     4ae:	a3f8                	sb	a4,6(a5)
     4b0:	400237b7          	lui	a5,0x40023
     4b4:	40078793          	addi	a5,a5,1024 # 40023400 <_eusrstack+0x2001e400>
     4b8:	f8100713          	li	a4,-127
     4bc:	b398                	sb	a4,1(a5)
     4be:	400237b7          	lui	a5,0x40023
     4c2:	40078793          	addi	a5,a5,1024 # 40023400 <_eusrstack+0x2001e400>
     4c6:	471d                	li	a4,7
     4c8:	a3b8                	sb	a4,2(a5)
     4ca:	02d00793          	li	a5,45
     4ce:	fef42623          	sw	a5,-20(s0)
     4d2:	fec42783          	lw	a5,-20(s0)
     4d6:	8bfd                	andi	a5,a5,31
     4d8:	4705                	li	a4,1
     4da:	00f716b3          	sll	a3,a4,a5
     4de:	e000e737          	lui	a4,0xe000e
     4e2:	fec42783          	lw	a5,-20(s0)
     4e6:	8395                	srli	a5,a5,0x5
     4e8:	04078793          	addi	a5,a5,64
     4ec:	078a                	slli	a5,a5,0x2
     4ee:	97ba                	add	a5,a5,a4
     4f0:	c394                	sw	a3,0(a5)
     4f2:	a8a9                	j	54c <USBFS_Device_Init+0x118>
     4f4:	400107b7          	lui	a5,0x40010
     4f8:	4f98                	lw	a4,24(a5)
     4fa:	400107b7          	lui	a5,0x40010
     4fe:	f7077713          	andi	a4,a4,-144
     502:	cf98                	sw	a4,24(a5)
     504:	400237b7          	lui	a5,0x40023
     508:	40078793          	addi	a5,a5,1024 # 40023400 <_eusrstack+0x2001e400>
     50c:	4719                	li	a4,6
     50e:	a398                	sb	a4,0(a5)
     510:	4529                	li	a0,10
     512:	113020ef          	jal	ra,2e24 <Delay_Us>
     516:	400237b7          	lui	a5,0x40023
     51a:	40078793          	addi	a5,a5,1024 # 40023400 <_eusrstack+0x2001e400>
     51e:	00078023          	sb	zero,0(a5)
     522:	02d00793          	li	a5,45
     526:	fef42423          	sw	a5,-24(s0)
     52a:	fe842783          	lw	a5,-24(s0)
     52e:	8bfd                	andi	a5,a5,31
     530:	4705                	li	a4,1
     532:	00f716b3          	sll	a3,a4,a5
     536:	e000e737          	lui	a4,0xe000e
     53a:	fe842783          	lw	a5,-24(s0)
     53e:	8395                	srli	a5,a5,0x5
     540:	06078793          	addi	a5,a5,96
     544:	078a                	slli	a5,a5,0x2
     546:	97ba                	add	a5,a5,a4
     548:	c394                	sw	a3,0(a5)
     54a:	0001                	nop
     54c:	0001                	nop
     54e:	50b2                	lw	ra,44(sp)
     550:	5422                	lw	s0,40(sp)
     552:	6145                	addi	sp,sp,48
     554:	8082                	ret

00000556 <USBFS_Endp_DataUp>:
     556:	7179                	addi	sp,sp,-48
     558:	d606                	sw	ra,44(sp)
     55a:	d422                	sw	s0,40(sp)
     55c:	1800                	addi	s0,sp,48
     55e:	87aa                	mv	a5,a0
     560:	fcb42c23          	sw	a1,-40(s0)
     564:	8736                	mv	a4,a3
     566:	fcf40fa3          	sb	a5,-33(s0)
     56a:	87b2                	mv	a5,a2
     56c:	fcf41e23          	sh	a5,-36(s0)
     570:	87ba                	mv	a5,a4
     572:	fcf40f23          	sb	a5,-34(s0)
     576:	fdf44783          	lbu	a5,-33(s0)
     57a:	471d                	li	a4,7
     57c:	10f76f63          	bltu	a4,a5,69a <USBFS_Endp_DataUp+0x144>
     580:	00279713          	slli	a4,a5,0x2
     584:	6791                	lui	a5,0x4
     586:	47078793          	addi	a5,a5,1136 # 4470 <_read+0x14e>
     58a:	97ba                	add	a5,a5,a4
     58c:	439c                	lw	a5,0(a5)
     58e:	8782                	jr	a5
     590:	400237b7          	lui	a5,0x40023
     594:	42478793          	addi	a5,a5,1060 # 40023424 <_eusrstack+0x2001e424>
     598:	fef42423          	sw	a5,-24(s0)
     59c:	400237b7          	lui	a5,0x40023
     5a0:	42678793          	addi	a5,a5,1062 # 40023426 <_eusrstack+0x2001e426>
     5a4:	fef42223          	sw	a5,-28(s0)
     5a8:	400237b7          	lui	a5,0x40023
     5ac:	41478793          	addi	a5,a5,1044 # 40023414 <_eusrstack+0x2001e414>
     5b0:	fef42023          	sw	a5,-32(s0)
     5b4:	a0e5                	j	69c <USBFS_Endp_DataUp+0x146>
     5b6:	400237b7          	lui	a5,0x40023
     5ba:	42878793          	addi	a5,a5,1064 # 40023428 <_eusrstack+0x2001e428>
     5be:	fef42423          	sw	a5,-24(s0)
     5c2:	400237b7          	lui	a5,0x40023
     5c6:	42a78793          	addi	a5,a5,1066 # 4002342a <_eusrstack+0x2001e42a>
     5ca:	fef42223          	sw	a5,-28(s0)
     5ce:	400237b7          	lui	a5,0x40023
     5d2:	41878793          	addi	a5,a5,1048 # 40023418 <_eusrstack+0x2001e418>
     5d6:	fef42023          	sw	a5,-32(s0)
     5da:	a0c9                	j	69c <USBFS_Endp_DataUp+0x146>
     5dc:	400237b7          	lui	a5,0x40023
     5e0:	42c78793          	addi	a5,a5,1068 # 4002342c <_eusrstack+0x2001e42c>
     5e4:	fef42423          	sw	a5,-24(s0)
     5e8:	400237b7          	lui	a5,0x40023
     5ec:	42e78793          	addi	a5,a5,1070 # 4002342e <_eusrstack+0x2001e42e>
     5f0:	fef42223          	sw	a5,-28(s0)
     5f4:	400237b7          	lui	a5,0x40023
     5f8:	41c78793          	addi	a5,a5,1052 # 4002341c <_eusrstack+0x2001e41c>
     5fc:	fef42023          	sw	a5,-32(s0)
     600:	a871                	j	69c <USBFS_Endp_DataUp+0x146>
     602:	400237b7          	lui	a5,0x40023
     606:	43078793          	addi	a5,a5,1072 # 40023430 <_eusrstack+0x2001e430>
     60a:	fef42423          	sw	a5,-24(s0)
     60e:	400237b7          	lui	a5,0x40023
     612:	43278793          	addi	a5,a5,1074 # 40023432 <_eusrstack+0x2001e432>
     616:	fef42223          	sw	a5,-28(s0)
     61a:	400237b7          	lui	a5,0x40023
     61e:	41078793          	addi	a5,a5,1040 # 40023410 <_eusrstack+0x2001e410>
     622:	fef42023          	sw	a5,-32(s0)
     626:	a89d                	j	69c <USBFS_Endp_DataUp+0x146>
     628:	400237b7          	lui	a5,0x40023
     62c:	46478793          	addi	a5,a5,1124 # 40023464 <_eusrstack+0x2001e464>
     630:	fef42423          	sw	a5,-24(s0)
     634:	400237b7          	lui	a5,0x40023
     638:	46678793          	addi	a5,a5,1126 # 40023466 <_eusrstack+0x2001e466>
     63c:	fef42223          	sw	a5,-28(s0)
     640:	400237b7          	lui	a5,0x40023
     644:	45478793          	addi	a5,a5,1108 # 40023454 <_eusrstack+0x2001e454>
     648:	fef42023          	sw	a5,-32(s0)
     64c:	a881                	j	69c <USBFS_Endp_DataUp+0x146>
     64e:	400237b7          	lui	a5,0x40023
     652:	46878793          	addi	a5,a5,1128 # 40023468 <_eusrstack+0x2001e468>
     656:	fef42423          	sw	a5,-24(s0)
     65a:	400237b7          	lui	a5,0x40023
     65e:	46a78793          	addi	a5,a5,1130 # 4002346a <_eusrstack+0x2001e46a>
     662:	fef42223          	sw	a5,-28(s0)
     666:	400237b7          	lui	a5,0x40023
     66a:	45878793          	addi	a5,a5,1112 # 40023458 <_eusrstack+0x2001e458>
     66e:	fef42023          	sw	a5,-32(s0)
     672:	a02d                	j	69c <USBFS_Endp_DataUp+0x146>
     674:	400237b7          	lui	a5,0x40023
     678:	46c78793          	addi	a5,a5,1132 # 4002346c <_eusrstack+0x2001e46c>
     67c:	fef42423          	sw	a5,-24(s0)
     680:	400237b7          	lui	a5,0x40023
     684:	46e78793          	addi	a5,a5,1134 # 4002346e <_eusrstack+0x2001e46e>
     688:	fef42223          	sw	a5,-28(s0)
     68c:	400237b7          	lui	a5,0x40023
     690:	45c78793          	addi	a5,a5,1116 # 4002345c <_eusrstack+0x2001e45c>
     694:	fef42023          	sw	a5,-32(s0)
     698:	a011                	j	69c <USBFS_Endp_DataUp+0x146>
     69a:	0001                	nop
     69c:	fdf44783          	lbu	a5,-33(s0)
     6a0:	1e078663          	beqz	a5,88c <__stack_size+0x8c>
     6a4:	fdf44703          	lbu	a4,-33(s0)
     6a8:	479d                	li	a5,7
     6aa:	1ee7e163          	bltu	a5,a4,88c <__stack_size+0x8c>
     6ae:	fdf44783          	lbu	a5,-33(s0)
     6b2:	83818713          	addi	a4,gp,-1992 # 200001e0 <USBFS_Endp_Busy>
     6b6:	97ba                	add	a5,a5,a4
     6b8:	239c                	lbu	a5,0(a5)
     6ba:	0ff7f793          	zext.b	a5,a5
     6be:	1c079563          	bnez	a5,888 <__stack_size+0x88>
     6c2:	fdf44703          	lbu	a4,-33(s0)
     6c6:	4785                	li	a5,1
     6c8:	00f70763          	beq	a4,a5,6d6 <USBFS_Endp_DataUp+0x180>
     6cc:	fdf44703          	lbu	a4,-33(s0)
     6d0:	4791                	li	a5,4
     6d2:	02f71463          	bne	a4,a5,6fa <USBFS_Endp_DataUp+0x1a4>
     6d6:	400237b7          	lui	a5,0x40023
     6da:	40078793          	addi	a5,a5,1024 # 40023400 <_eusrstack+0x2001e400>
     6de:	27dc                	lbu	a5,12(a5)
     6e0:	fef407a3          	sb	a5,-17(s0)
     6e4:	fdf44703          	lbu	a4,-33(s0)
     6e8:	4785                	li	a5,1
     6ea:	08f71563          	bne	a4,a5,774 <USBFS_Endp_DataUp+0x21e>
     6ee:	fef44783          	lbu	a5,-17(s0)
     6f2:	8391                	srli	a5,a5,0x4
     6f4:	fef407a3          	sb	a5,-17(s0)
     6f8:	a8b5                	j	774 <USBFS_Endp_DataUp+0x21e>
     6fa:	fdf44703          	lbu	a4,-33(s0)
     6fe:	4789                	li	a5,2
     700:	00f70763          	beq	a4,a5,70e <USBFS_Endp_DataUp+0x1b8>
     704:	fdf44703          	lbu	a4,-33(s0)
     708:	478d                	li	a5,3
     70a:	02f71463          	bne	a4,a5,732 <USBFS_Endp_DataUp+0x1dc>
     70e:	400237b7          	lui	a5,0x40023
     712:	40078793          	addi	a5,a5,1024 # 40023400 <_eusrstack+0x2001e400>
     716:	37dc                	lbu	a5,13(a5)
     718:	fef407a3          	sb	a5,-17(s0)
     71c:	fdf44703          	lbu	a4,-33(s0)
     720:	478d                	li	a5,3
     722:	04f71963          	bne	a4,a5,774 <USBFS_Endp_DataUp+0x21e>
     726:	fef44783          	lbu	a5,-17(s0)
     72a:	8391                	srli	a5,a5,0x4
     72c:	fef407a3          	sb	a5,-17(s0)
     730:	a091                	j	774 <USBFS_Endp_DataUp+0x21e>
     732:	400237b7          	lui	a5,0x40023
     736:	40078793          	addi	a5,a5,1024 # 40023400 <_eusrstack+0x2001e400>
     73a:	27fc                	lbu	a5,14(a5)
     73c:	fef407a3          	sb	a5,-17(s0)
     740:	fdf44703          	lbu	a4,-33(s0)
     744:	4795                	li	a5,5
     746:	00f71863          	bne	a4,a5,756 <USBFS_Endp_DataUp+0x200>
     74a:	fef44783          	lbu	a5,-17(s0)
     74e:	078a                	slli	a5,a5,0x2
     750:	fef407a3          	sb	a5,-17(s0)
     754:	a819                	j	76a <USBFS_Endp_DataUp+0x214>
     756:	fdf44703          	lbu	a4,-33(s0)
     75a:	479d                	li	a5,7
     75c:	00f71763          	bne	a4,a5,76a <USBFS_Endp_DataUp+0x214>
     760:	fef44783          	lbu	a5,-17(s0)
     764:	8389                	srli	a5,a5,0x2
     766:	fef407a3          	sb	a5,-17(s0)
     76a:	fef44783          	lbu	a5,-17(s0)
     76e:	9bf9                	andi	a5,a5,-2
     770:	fef407a3          	sb	a5,-17(s0)
     774:	fef44783          	lbu	a5,-17(s0)
     778:	8b91                	andi	a5,a5,4
     77a:	10078563          	beqz	a5,884 <__stack_size+0x84>
     77e:	fef44783          	lbu	a5,-17(s0)
     782:	8ba1                	andi	a5,a5,8
     784:	cb95                	beqz	a5,7b8 <USBFS_Endp_DataUp+0x262>
     786:	fef44783          	lbu	a5,-17(s0)
     78a:	8b85                	andi	a5,a5,1
     78c:	c38d                	beqz	a5,7ae <USBFS_Endp_DataUp+0x258>
     78e:	fe442783          	lw	a5,-28(s0)
     792:	239e                	lhu	a5,0(a5)
     794:	0407f793          	andi	a5,a5,64
     798:	c791                	beqz	a5,7a4 <USBFS_Endp_DataUp+0x24e>
     79a:	fc000793          	li	a5,-64
     79e:	fef40723          	sb	a5,-18(s0)
     7a2:	a83d                	j	7e0 <USBFS_Endp_DataUp+0x28a>
     7a4:	f8000793          	li	a5,-128
     7a8:	fef40723          	sb	a5,-18(s0)
     7ac:	a815                	j	7e0 <USBFS_Endp_DataUp+0x28a>
     7ae:	04000793          	li	a5,64
     7b2:	fef40723          	sb	a5,-18(s0)
     7b6:	a02d                	j	7e0 <USBFS_Endp_DataUp+0x28a>
     7b8:	fef44783          	lbu	a5,-17(s0)
     7bc:	8b85                	andi	a5,a5,1
     7be:	cf99                	beqz	a5,7dc <USBFS_Endp_DataUp+0x286>
     7c0:	fe442783          	lw	a5,-28(s0)
     7c4:	239e                	lhu	a5,0(a5)
     7c6:	0407f793          	andi	a5,a5,64
     7ca:	c791                	beqz	a5,7d6 <USBFS_Endp_DataUp+0x280>
     7cc:	04000793          	li	a5,64
     7d0:	fef40723          	sb	a5,-18(s0)
     7d4:	a031                	j	7e0 <USBFS_Endp_DataUp+0x28a>
     7d6:	fe040723          	sb	zero,-18(s0)
     7da:	a019                	j	7e0 <USBFS_Endp_DataUp+0x28a>
     7dc:	fe040723          	sb	zero,-18(s0)
     7e0:	fdf44703          	lbu	a4,-33(s0)
     7e4:	4791                	li	a5,4
     7e6:	00f71863          	bne	a4,a5,7f6 <USBFS_Endp_DataUp+0x2a0>
     7ea:	fee44783          	lbu	a5,-18(s0)
     7ee:	04078793          	addi	a5,a5,64
     7f2:	fef40723          	sb	a5,-18(s0)
     7f6:	fee44783          	lbu	a5,-18(s0)
     7fa:	eb9d                	bnez	a5,830 <__stack_size+0x30>
     7fc:	fde44783          	lbu	a5,-34(s0)
     800:	eb89                	bnez	a5,812 <__stack_size+0x12>
     802:	fd842783          	lw	a5,-40(s0)
     806:	0ff7f713          	zext.b	a4,a5
     80a:	fe042783          	lw	a5,-32(s0)
     80e:	a398                	sb	a4,0(a5)
     810:	a089                	j	852 <__stack_size+0x52>
     812:	fe042783          	lw	a5,-32(s0)
     816:	4398                	lw	a4,0(a5)
     818:	200007b7          	lui	a5,0x20000
     81c:	97ba                	add	a5,a5,a4
     81e:	873e                	mv	a4,a5
     820:	fdc45783          	lhu	a5,-36(s0)
     824:	863e                	mv	a2,a5
     826:	fd842583          	lw	a1,-40(s0)
     82a:	853a                	mv	a0,a4
     82c:	38d1                	jal	100 <memcpy>
     82e:	a015                	j	852 <__stack_size+0x52>
     830:	fee44703          	lbu	a4,-18(s0)
     834:	fe042783          	lw	a5,-32(s0)
     838:	439c                	lw	a5,0(a5)
     83a:	973e                	add	a4,a4,a5
     83c:	200007b7          	lui	a5,0x20000
     840:	97ba                	add	a5,a5,a4
     842:	873e                	mv	a4,a5
     844:	fdc45783          	lhu	a5,-36(s0)
     848:	863e                	mv	a2,a5
     84a:	fd842583          	lw	a1,-40(s0)
     84e:	853a                	mv	a0,a4
     850:	3845                	jal	100 <memcpy>
     852:	fe842783          	lw	a5,-24(s0)
     856:	fdc45703          	lhu	a4,-36(s0)
     85a:	a39a                	sh	a4,0(a5)
     85c:	fe442783          	lw	a5,-28(s0)
     860:	239e                	lhu	a5,0(a5)
     862:	9bf1                	andi	a5,a5,-4
     864:	01079713          	slli	a4,a5,0x10
     868:	8341                	srli	a4,a4,0x10
     86a:	fe442783          	lw	a5,-28(s0)
     86e:	a39a                	sh	a4,0(a5)
     870:	fdf44783          	lbu	a5,-33(s0)
     874:	83818713          	addi	a4,gp,-1992 # 200001e0 <USBFS_Endp_Busy>
     878:	97ba                	add	a5,a5,a4
     87a:	4705                	li	a4,1
     87c:	a398                	sb	a4,0(a5)
     87e:	0001                	nop
     880:	4781                	li	a5,0
     882:	a031                	j	88e <__stack_size+0x8e>
     884:	4785                	li	a5,1
     886:	a021                	j	88e <__stack_size+0x8e>
     888:	4785                	li	a5,1
     88a:	a011                	j	88e <__stack_size+0x8e>
     88c:	4785                	li	a5,1
     88e:	853e                	mv	a0,a5
     890:	50b2                	lw	ra,44(sp)
     892:	5422                	lw	s0,40(sp)
     894:	6145                	addi	sp,sp,48
     896:	8082                	ret

00000898 <USBFS_IRQHandler>:
     898:	1101                	addi	sp,sp,-32
     89a:	ce22                	sw	s0,28(sp)
     89c:	1000                	addi	s0,sp,32
     89e:	400237b7          	lui	a5,0x40023
     8a2:	40078793          	addi	a5,a5,1024 # 40023400 <_eusrstack+0x2001e400>
     8a6:	23fc                	lbu	a5,6(a5)
     8a8:	fef405a3          	sb	a5,-21(s0)
     8ac:	400237b7          	lui	a5,0x40023
     8b0:	40078793          	addi	a5,a5,1024 # 40023400 <_eusrstack+0x2001e400>
     8b4:	33fc                	lbu	a5,7(a5)
     8b6:	fef40523          	sb	a5,-22(s0)
     8ba:	feb44783          	lbu	a5,-21(s0)
     8be:	8b89                	andi	a5,a5,2
     8c0:	34078ce3          	beqz	a5,1418 <USBFS_IRQHandler+0xb80>
     8c4:	fea44783          	lbu	a5,-22(s0)
     8c8:	0307f793          	andi	a5,a5,48
     8cc:	03000713          	li	a4,48
     8d0:	2ee78d63          	beq	a5,a4,bca <USBFS_IRQHandler+0x332>
     8d4:	03000713          	li	a4,48
     8d8:	32f746e3          	blt	a4,a5,1404 <USBFS_IRQHandler+0xb6c>
     8dc:	02000713          	li	a4,32
     8e0:	00e78d63          	beq	a5,a4,8fa <USBFS_IRQHandler+0x62>
     8e4:	02000713          	li	a4,32
     8e8:	30f74ee3          	blt	a4,a5,1404 <USBFS_IRQHandler+0xb6c>
     8ec:	22078863          	beqz	a5,b1c <USBFS_IRQHandler+0x284>
     8f0:	4741                	li	a4,16
     8f2:	30e78be3          	beq	a5,a4,1408 <USBFS_IRQHandler+0xb70>
     8f6:	30f0006f          	j	1404 <USBFS_IRQHandler+0xb6c>
     8fa:	fea44783          	lbu	a5,-22(s0)
     8fe:	03f7f793          	andi	a5,a5,63
     902:	02200713          	li	a4,34
     906:	1ae78763          	beq	a5,a4,ab4 <USBFS_IRQHandler+0x21c>
     90a:	02200713          	li	a4,34
     90e:	20f74163          	blt	a4,a5,b10 <USBFS_IRQHandler+0x278>
     912:	02000713          	li	a4,32
     916:	00e78763          	beq	a5,a4,924 <USBFS_IRQHandler+0x8c>
     91a:	02100713          	li	a4,33
     91e:	12e78d63          	beq	a5,a4,a58 <USBFS_IRQHandler+0x1c0>
     922:	a2fd                	j	b10 <USBFS_IRQHandler+0x278>
     924:	82a1d783          	lhu	a5,-2006(gp) # 200001d2 <USBFS_SetupReqLen>
     928:	07c2                	slli	a5,a5,0x10
     92a:	83c1                	srli	a5,a5,0x10
     92c:	eb95                	bnez	a5,960 <USBFS_IRQHandler+0xc8>
     92e:	400237b7          	lui	a5,0x40023
     932:	40078793          	addi	a5,a5,1024 # 40023400 <_eusrstack+0x2001e400>
     936:	33be                	lhu	a5,34(a5)
     938:	07c2                	slli	a5,a5,0x10
     93a:	83c1                	srli	a5,a5,0x10
     93c:	07c2                	slli	a5,a5,0x10
     93e:	87c1                	srai	a5,a5,0x10
     940:	f737f793          	andi	a5,a5,-141
     944:	07c2                	slli	a5,a5,0x10
     946:	87c1                	srai	a5,a5,0x10
     948:	0807e793          	ori	a5,a5,128
     94c:	01079713          	slli	a4,a5,0x10
     950:	8741                	srai	a4,a4,0x10
     952:	400237b7          	lui	a5,0x40023
     956:	40078793          	addi	a5,a5,1024 # 40023400 <_eusrstack+0x2001e400>
     95a:	0742                	slli	a4,a4,0x10
     95c:	8341                	srli	a4,a4,0x10
     95e:	b3ba                	sh	a4,34(a5)
     960:	8251c783          	lbu	a5,-2011(gp) # 200001cd <USBFS_SetupReqType>
     964:	0ff7f793          	zext.b	a5,a5
     968:	0607f793          	andi	a5,a5,96
     96c:	1a079563          	bnez	a5,b16 <USBFS_IRQHandler+0x27e>
     970:	8241c783          	lbu	a5,-2012(gp) # 200001cc <USBFS_SetupReqCode>
     974:	0ff7f793          	zext.b	a5,a5
     978:	4715                	li	a4,5
     97a:	08e78d63          	beq	a5,a4,a14 <USBFS_IRQHandler+0x17c>
     97e:	4719                	li	a4,6
     980:	0ce79a63          	bne	a5,a4,a54 <USBFS_IRQHandler+0x1bc>
     984:	82a1d783          	lhu	a5,-2006(gp) # 200001d2 <USBFS_SetupReqLen>
     988:	01079713          	slli	a4,a5,0x10
     98c:	8341                	srli	a4,a4,0x10
     98e:	03f00793          	li	a5,63
     992:	00e7e763          	bltu	a5,a4,9a0 <USBFS_IRQHandler+0x108>
     996:	82a1d783          	lhu	a5,-2006(gp) # 200001d2 <USBFS_SetupReqLen>
     99a:	07c2                	slli	a5,a5,0x10
     99c:	83c1                	srli	a5,a5,0x10
     99e:	a019                	j	9a4 <USBFS_IRQHandler+0x10c>
     9a0:	04000793          	li	a5,64
     9a4:	fef41623          	sh	a5,-20(s0)
     9a8:	8201a783          	lw	a5,-2016(gp) # 200001c8 <pUSBFS_Descr>
     9ac:	fec45703          	lhu	a4,-20(s0)
     9b0:	863a                	mv	a2,a4
     9b2:	85be                	mv	a1,a5
     9b4:	87018513          	addi	a0,gp,-1936 # 20000218 <USBFS_EP0_Buf>
     9b8:	f48ff0ef          	jal	ra,100 <memcpy>
     9bc:	82a1d783          	lhu	a5,-2006(gp) # 200001d2 <USBFS_SetupReqLen>
     9c0:	07c2                	slli	a5,a5,0x10
     9c2:	83c1                	srli	a5,a5,0x10
     9c4:	fec45703          	lhu	a4,-20(s0)
     9c8:	8f99                	sub	a5,a5,a4
     9ca:	01079713          	slli	a4,a5,0x10
     9ce:	8341                	srli	a4,a4,0x10
     9d0:	82e19523          	sh	a4,-2006(gp) # 200001d2 <USBFS_SetupReqLen>
     9d4:	8201a703          	lw	a4,-2016(gp) # 200001c8 <pUSBFS_Descr>
     9d8:	fec45783          	lhu	a5,-20(s0)
     9dc:	973e                	add	a4,a4,a5
     9de:	82e1a023          	sw	a4,-2016(gp) # 200001c8 <pUSBFS_Descr>
     9e2:	400237b7          	lui	a5,0x40023
     9e6:	40078793          	addi	a5,a5,1024 # 40023400 <_eusrstack+0x2001e400>
     9ea:	fec45703          	lhu	a4,-20(s0)
     9ee:	b39a                	sh	a4,32(a5)
     9f0:	400237b7          	lui	a5,0x40023
     9f4:	40078793          	addi	a5,a5,1024 # 40023400 <_eusrstack+0x2001e400>
     9f8:	33be                	lhu	a5,34(a5)
     9fa:	01079713          	slli	a4,a5,0x10
     9fe:	8341                	srli	a4,a4,0x10
     a00:	400237b7          	lui	a5,0x40023
     a04:	40078793          	addi	a5,a5,1024 # 40023400 <_eusrstack+0x2001e400>
     a08:	04074713          	xori	a4,a4,64
     a0c:	0742                	slli	a4,a4,0x10
     a0e:	8341                	srli	a4,a4,0x10
     a10:	b3ba                	sh	a4,34(a5)
     a12:	a091                	j	a56 <USBFS_IRQHandler+0x1be>
     a14:	400237b7          	lui	a5,0x40023
     a18:	40078793          	addi	a5,a5,1024 # 40023400 <_eusrstack+0x2001e400>
     a1c:	33bc                	lbu	a5,3(a5)
     a1e:	0ff7f793          	zext.b	a5,a5
     a22:	07e2                	slli	a5,a5,0x18
     a24:	87e1                	srai	a5,a5,0x18
     a26:	f807f793          	andi	a5,a5,-128
     a2a:	01879713          	slli	a4,a5,0x18
     a2e:	8761                	srai	a4,a4,0x18
     a30:	82d1c783          	lbu	a5,-2003(gp) # 200001d5 <USBFS_DevAddr>
     a34:	0ff7f793          	zext.b	a5,a5
     a38:	07e2                	slli	a5,a5,0x18
     a3a:	87e1                	srai	a5,a5,0x18
     a3c:	8fd9                	or	a5,a5,a4
     a3e:	01879713          	slli	a4,a5,0x18
     a42:	8761                	srai	a4,a4,0x18
     a44:	400237b7          	lui	a5,0x40023
     a48:	40078793          	addi	a5,a5,1024 # 40023400 <_eusrstack+0x2001e400>
     a4c:	0ff77713          	zext.b	a4,a4
     a50:	b3b8                	sb	a4,3(a5)
     a52:	a011                	j	a56 <USBFS_IRQHandler+0x1be>
     a54:	0001                	nop
     a56:	a0c1                	j	b16 <USBFS_IRQHandler+0x27e>
     a58:	400237b7          	lui	a5,0x40023
     a5c:	40078793          	addi	a5,a5,1024 # 40023400 <_eusrstack+0x2001e400>
     a60:	33fe                	lhu	a5,38(a5)
     a62:	07c2                	slli	a5,a5,0x10
     a64:	83c1                	srli	a5,a5,0x10
     a66:	07c2                	slli	a5,a5,0x10
     a68:	87c1                	srai	a5,a5,0x10
     a6a:	9bf1                	andi	a5,a5,-4
     a6c:	07c2                	slli	a5,a5,0x10
     a6e:	87c1                	srai	a5,a5,0x10
     a70:	0027e793          	ori	a5,a5,2
     a74:	01079713          	slli	a4,a5,0x10
     a78:	8741                	srai	a4,a4,0x10
     a7a:	400237b7          	lui	a5,0x40023
     a7e:	40078793          	addi	a5,a5,1024 # 40023400 <_eusrstack+0x2001e400>
     a82:	0742                	slli	a4,a4,0x10
     a84:	8341                	srli	a4,a4,0x10
     a86:	b3fa                	sh	a4,38(a5)
     a88:	400237b7          	lui	a5,0x40023
     a8c:	40078793          	addi	a5,a5,1024 # 40023400 <_eusrstack+0x2001e400>
     a90:	33fe                	lhu	a5,38(a5)
     a92:	01079713          	slli	a4,a5,0x10
     a96:	8341                	srli	a4,a4,0x10
     a98:	400237b7          	lui	a5,0x40023
     a9c:	40078793          	addi	a5,a5,1024 # 40023400 <_eusrstack+0x2001e400>
     aa0:	04074713          	xori	a4,a4,64
     aa4:	0742                	slli	a4,a4,0x10
     aa6:	8341                	srli	a4,a4,0x10
     aa8:	b3fa                	sh	a4,38(a5)
     aaa:	83818793          	addi	a5,gp,-1992 # 200001e0 <USBFS_Endp_Busy>
     aae:	000780a3          	sb	zero,1(a5)
     ab2:	a09d                	j	b18 <USBFS_IRQHandler+0x280>
     ab4:	400237b7          	lui	a5,0x40023
     ab8:	40078793          	addi	a5,a5,1024 # 40023400 <_eusrstack+0x2001e400>
     abc:	37be                	lhu	a5,42(a5)
     abe:	07c2                	slli	a5,a5,0x10
     ac0:	83c1                	srli	a5,a5,0x10
     ac2:	07c2                	slli	a5,a5,0x10
     ac4:	87c1                	srai	a5,a5,0x10
     ac6:	9bf1                	andi	a5,a5,-4
     ac8:	07c2                	slli	a5,a5,0x10
     aca:	87c1                	srai	a5,a5,0x10
     acc:	0027e793          	ori	a5,a5,2
     ad0:	01079713          	slli	a4,a5,0x10
     ad4:	8741                	srai	a4,a4,0x10
     ad6:	400237b7          	lui	a5,0x40023
     ada:	40078793          	addi	a5,a5,1024 # 40023400 <_eusrstack+0x2001e400>
     ade:	0742                	slli	a4,a4,0x10
     ae0:	8341                	srli	a4,a4,0x10
     ae2:	b7ba                	sh	a4,42(a5)
     ae4:	400237b7          	lui	a5,0x40023
     ae8:	40078793          	addi	a5,a5,1024 # 40023400 <_eusrstack+0x2001e400>
     aec:	37be                	lhu	a5,42(a5)
     aee:	01079713          	slli	a4,a5,0x10
     af2:	8341                	srli	a4,a4,0x10
     af4:	400237b7          	lui	a5,0x40023
     af8:	40078793          	addi	a5,a5,1024 # 40023400 <_eusrstack+0x2001e400>
     afc:	04074713          	xori	a4,a4,64
     b00:	0742                	slli	a4,a4,0x10
     b02:	8341                	srli	a4,a4,0x10
     b04:	b7ba                	sh	a4,42(a5)
     b06:	83818793          	addi	a5,gp,-1992 # 200001e0 <USBFS_Endp_Busy>
     b0a:	00078123          	sb	zero,2(a5)
     b0e:	a029                	j	b18 <USBFS_IRQHandler+0x280>
     b10:	0001                	nop
     b12:	0f90006f          	j	140a <USBFS_IRQHandler+0xb72>
     b16:	0001                	nop
     b18:	0f30006f          	j	140a <USBFS_IRQHandler+0xb72>
     b1c:	fea44783          	lbu	a5,-22(s0)
     b20:	03f7f793          	andi	a5,a5,63
     b24:	efc9                	bnez	a5,bbe <USBFS_IRQHandler+0x326>
     b26:	fea44783          	lbu	a5,-22(s0)
     b2a:	0407f793          	andi	a5,a5,64
     b2e:	c3b9                	beqz	a5,b74 <USBFS_IRQHandler+0x2dc>
     b30:	8251c783          	lbu	a5,-2011(gp) # 200001cd <USBFS_SetupReqType>
     b34:	0ff7f793          	zext.b	a5,a5
     b38:	0607f793          	andi	a5,a5,96
     b3c:	cf85                	beqz	a5,b74 <USBFS_IRQHandler+0x2dc>
     b3e:	8251c783          	lbu	a5,-2011(gp) # 200001cd <USBFS_SetupReqType>
     b42:	0ff7f793          	zext.b	a5,a5
     b46:	0607f713          	andi	a4,a5,96
     b4a:	02000793          	li	a5,32
     b4e:	02f71363          	bne	a4,a5,b74 <USBFS_IRQHandler+0x2dc>
     b52:	8241c783          	lbu	a5,-2012(gp) # 200001cc <USBFS_SetupReqCode>
     b56:	0ff7f793          	zext.b	a5,a5
     b5a:	873e                	mv	a4,a5
     b5c:	47a5                	li	a5,9
     b5e:	00f71a63          	bne	a4,a5,b72 <USBFS_IRQHandler+0x2da>
     b62:	87018793          	addi	a5,gp,-1936 # 20000218 <USBFS_EP0_Buf>
     b66:	2398                	lbu	a4,0(a5)
     b68:	84e18423          	sb	a4,-1976(gp) # 200001f0 <KB_LED_Cur_Status>
     b6c:	82019523          	sh	zero,-2006(gp) # 200001d2 <USBFS_SetupReqLen>
     b70:	a011                	j	b74 <USBFS_IRQHandler+0x2dc>
     b72:	0001                	nop
     b74:	82a1d783          	lhu	a5,-2006(gp) # 200001d2 <USBFS_SetupReqLen>
     b78:	07c2                	slli	a5,a5,0x10
     b7a:	83c1                	srli	a5,a5,0x10
     b7c:	e7a1                	bnez	a5,bc4 <USBFS_IRQHandler+0x32c>
     b7e:	400237b7          	lui	a5,0x40023
     b82:	40078793          	addi	a5,a5,1024 # 40023400 <_eusrstack+0x2001e400>
     b86:	02079023          	sh	zero,32(a5)
     b8a:	400237b7          	lui	a5,0x40023
     b8e:	40078793          	addi	a5,a5,1024 # 40023400 <_eusrstack+0x2001e400>
     b92:	33be                	lhu	a5,34(a5)
     b94:	07c2                	slli	a5,a5,0x10
     b96:	83c1                	srli	a5,a5,0x10
     b98:	07c2                	slli	a5,a5,0x10
     b9a:	87c1                	srai	a5,a5,0x10
     b9c:	fbc7f793          	andi	a5,a5,-68
     ba0:	07c2                	slli	a5,a5,0x10
     ba2:	87c1                	srai	a5,a5,0x10
     ba4:	0407e793          	ori	a5,a5,64
     ba8:	01079713          	slli	a4,a5,0x10
     bac:	8741                	srai	a4,a4,0x10
     bae:	400237b7          	lui	a5,0x40023
     bb2:	40078793          	addi	a5,a5,1024 # 40023400 <_eusrstack+0x2001e400>
     bb6:	0742                	slli	a4,a4,0x10
     bb8:	8341                	srli	a4,a4,0x10
     bba:	b3ba                	sh	a4,34(a5)
     bbc:	a021                	j	bc4 <USBFS_IRQHandler+0x32c>
     bbe:	0001                	nop
     bc0:	04b0006f          	j	140a <USBFS_IRQHandler+0xb72>
     bc4:	0001                	nop
     bc6:	0450006f          	j	140a <USBFS_IRQHandler+0xb72>
     bca:	400237b7          	lui	a5,0x40023
     bce:	40078793          	addi	a5,a5,1024 # 40023400 <_eusrstack+0x2001e400>
     bd2:	0ca00713          	li	a4,202
     bd6:	b3ba                	sh	a4,34(a5)
     bd8:	87018793          	addi	a5,gp,-1936 # 20000218 <USBFS_EP0_Buf>
     bdc:	2398                	lbu	a4,0(a5)
     bde:	82e182a3          	sb	a4,-2011(gp) # 200001cd <USBFS_SetupReqType>
     be2:	87018793          	addi	a5,gp,-1936 # 20000218 <USBFS_EP0_Buf>
     be6:	3398                	lbu	a4,1(a5)
     be8:	82e18223          	sb	a4,-2012(gp) # 200001cc <USBFS_SetupReqCode>
     bec:	87018793          	addi	a5,gp,-1936 # 20000218 <USBFS_EP0_Buf>
     bf0:	23f8                	lbu	a4,6(a5)
     bf2:	33fc                	lbu	a5,7(a5)
     bf4:	07a2                	slli	a5,a5,0x8
     bf6:	8fd9                	or	a5,a5,a4
     bf8:	01079713          	slli	a4,a5,0x10
     bfc:	8341                	srli	a4,a4,0x10
     bfe:	82e19523          	sh	a4,-2006(gp) # 200001d2 <USBFS_SetupReqLen>
     c02:	87018793          	addi	a5,gp,-1936 # 20000218 <USBFS_EP0_Buf>
     c06:	23b8                	lbu	a4,2(a5)
     c08:	33bc                	lbu	a5,3(a5)
     c0a:	07a2                	slli	a5,a5,0x8
     c0c:	8fd9                	or	a5,a5,a4
     c0e:	01079713          	slli	a4,a5,0x10
     c12:	8341                	srli	a4,a4,0x10
     c14:	82e19323          	sh	a4,-2010(gp) # 200001ce <USBFS_SetupReqValue>
     c18:	87018793          	addi	a5,gp,-1936 # 20000218 <USBFS_EP0_Buf>
     c1c:	23d8                	lbu	a4,4(a5)
     c1e:	33dc                	lbu	a5,5(a5)
     c20:	07a2                	slli	a5,a5,0x8
     c22:	8fd9                	or	a5,a5,a4
     c24:	01079713          	slli	a4,a5,0x10
     c28:	8341                	srli	a4,a4,0x10
     c2a:	82e19423          	sh	a4,-2008(gp) # 200001d0 <USBFS_SetupReqIndex>
     c2e:	fe041623          	sh	zero,-20(s0)
     c32:	fe0407a3          	sb	zero,-17(s0)
     c36:	8251c783          	lbu	a5,-2011(gp) # 200001cd <USBFS_SetupReqType>
     c3a:	0ff7f793          	zext.b	a5,a5
     c3e:	0607f793          	andi	a5,a5,96
     c42:	16078d63          	beqz	a5,dbc <USBFS_IRQHandler+0x524>
     c46:	8251c783          	lbu	a5,-2011(gp) # 200001cd <USBFS_SetupReqType>
     c4a:	0ff7f793          	zext.b	a5,a5
     c4e:	0607f713          	andi	a4,a5,96
     c52:	02000793          	li	a5,32
     c56:	68f71363          	bne	a4,a5,12dc <USBFS_IRQHandler+0xa44>
     c5a:	8241c783          	lbu	a5,-2012(gp) # 200001cc <USBFS_SetupReqCode>
     c5e:	0ff7f793          	zext.b	a5,a5
     c62:	472d                	li	a4,11
     c64:	14f76863          	bltu	a4,a5,db4 <USBFS_IRQHandler+0x51c>
     c68:	00279713          	slli	a4,a5,0x2
     c6c:	6791                	lui	a5,0x4
     c6e:	49078793          	addi	a5,a5,1168 # 4490 <_read+0x16e>
     c72:	97ba                	add	a5,a5,a4
     c74:	439c                	lw	a5,0(a5)
     c76:	8782                	jr	a5
     c78:	8281d783          	lhu	a5,-2008(gp) # 200001d0 <USBFS_SetupReqIndex>
     c7c:	07c2                	slli	a5,a5,0x10
     c7e:	83c1                	srli	a5,a5,0x10
     c80:	ef89                	bnez	a5,c9a <USBFS_IRQHandler+0x402>
     c82:	8261d783          	lhu	a5,-2010(gp) # 200001ce <USBFS_SetupReqValue>
     c86:	07c2                	slli	a5,a5,0x10
     c88:	83c1                	srli	a5,a5,0x10
     c8a:	83a1                	srli	a5,a5,0x8
     c8c:	07c2                	slli	a5,a5,0x10
     c8e:	83c1                	srli	a5,a5,0x10
     c90:	0ff7f713          	zext.b	a4,a5
     c94:	82e18823          	sb	a4,-2000(gp) # 200001d8 <USBFS_HidIdle>
     c98:	a591                	j	12dc <USBFS_IRQHandler+0xa44>
     c9a:	8281d783          	lhu	a5,-2008(gp) # 200001d0 <USBFS_SetupReqIndex>
     c9e:	01079713          	slli	a4,a5,0x10
     ca2:	8341                	srli	a4,a4,0x10
     ca4:	4785                	li	a5,1
     ca6:	00f71f63          	bne	a4,a5,cc4 <USBFS_IRQHandler+0x42c>
     caa:	8261d783          	lhu	a5,-2010(gp) # 200001ce <USBFS_SetupReqValue>
     cae:	07c2                	slli	a5,a5,0x10
     cb0:	83c1                	srli	a5,a5,0x10
     cb2:	83a1                	srli	a5,a5,0x8
     cb4:	07c2                	slli	a5,a5,0x10
     cb6:	83c1                	srli	a5,a5,0x10
     cb8:	0ff7f713          	zext.b	a4,a5
     cbc:	83018793          	addi	a5,gp,-2000 # 200001d8 <USBFS_HidIdle>
     cc0:	b398                	sb	a4,1(a5)
     cc2:	ad29                	j	12dc <USBFS_IRQHandler+0xa44>
     cc4:	57fd                	li	a5,-1
     cc6:	fef407a3          	sb	a5,-17(s0)
     cca:	ad09                	j	12dc <USBFS_IRQHandler+0xa44>
     ccc:	8281d783          	lhu	a5,-2008(gp) # 200001d0 <USBFS_SetupReqIndex>
     cd0:	07c2                	slli	a5,a5,0x10
     cd2:	83c1                	srli	a5,a5,0x10
     cd4:	eb91                	bnez	a5,ce8 <USBFS_IRQHandler+0x450>
     cd6:	8261d783          	lhu	a5,-2010(gp) # 200001ce <USBFS_SetupReqValue>
     cda:	07c2                	slli	a5,a5,0x10
     cdc:	83c1                	srli	a5,a5,0x10
     cde:	0ff7f713          	zext.b	a4,a5
     ce2:	82e18a23          	sb	a4,-1996(gp) # 200001dc <USBFS_HidProtocol>
     ce6:	abdd                	j	12dc <USBFS_IRQHandler+0xa44>
     ce8:	8281d783          	lhu	a5,-2008(gp) # 200001d0 <USBFS_SetupReqIndex>
     cec:	01079713          	slli	a4,a5,0x10
     cf0:	8341                	srli	a4,a4,0x10
     cf2:	4785                	li	a5,1
     cf4:	00f71c63          	bne	a4,a5,d0c <USBFS_IRQHandler+0x474>
     cf8:	8261d783          	lhu	a5,-2010(gp) # 200001ce <USBFS_SetupReqValue>
     cfc:	07c2                	slli	a5,a5,0x10
     cfe:	83c1                	srli	a5,a5,0x10
     d00:	0ff7f713          	zext.b	a4,a5
     d04:	83418793          	addi	a5,gp,-1996 # 200001dc <USBFS_HidProtocol>
     d08:	b398                	sb	a4,1(a5)
     d0a:	abc9                	j	12dc <USBFS_IRQHandler+0xa44>
     d0c:	57fd                	li	a5,-1
     d0e:	fef407a3          	sb	a5,-17(s0)
     d12:	a3e9                	j	12dc <USBFS_IRQHandler+0xa44>
     d14:	8281d783          	lhu	a5,-2008(gp) # 200001d0 <USBFS_SetupReqIndex>
     d18:	07c2                	slli	a5,a5,0x10
     d1a:	83c1                	srli	a5,a5,0x10
     d1c:	ef81                	bnez	a5,d34 <USBFS_IRQHandler+0x49c>
     d1e:	8301c783          	lbu	a5,-2000(gp) # 200001d8 <USBFS_HidIdle>
     d22:	0ff7f713          	zext.b	a4,a5
     d26:	87018793          	addi	a5,gp,-1936 # 20000218 <USBFS_EP0_Buf>
     d2a:	a398                	sb	a4,0(a5)
     d2c:	4785                	li	a5,1
     d2e:	fef41623          	sh	a5,-20(s0)
     d32:	a36d                	j	12dc <USBFS_IRQHandler+0xa44>
     d34:	8281d783          	lhu	a5,-2008(gp) # 200001d0 <USBFS_SetupReqIndex>
     d38:	01079713          	slli	a4,a5,0x10
     d3c:	8341                	srli	a4,a4,0x10
     d3e:	4785                	li	a5,1
     d40:	00f71e63          	bne	a4,a5,d5c <USBFS_IRQHandler+0x4c4>
     d44:	83018793          	addi	a5,gp,-2000 # 200001d8 <USBFS_HidIdle>
     d48:	339c                	lbu	a5,1(a5)
     d4a:	0ff7f713          	zext.b	a4,a5
     d4e:	87018793          	addi	a5,gp,-1936 # 20000218 <USBFS_EP0_Buf>
     d52:	a398                	sb	a4,0(a5)
     d54:	4785                	li	a5,1
     d56:	fef41623          	sh	a5,-20(s0)
     d5a:	a349                	j	12dc <USBFS_IRQHandler+0xa44>
     d5c:	57fd                	li	a5,-1
     d5e:	fef407a3          	sb	a5,-17(s0)
     d62:	abad                	j	12dc <USBFS_IRQHandler+0xa44>
     d64:	8281d783          	lhu	a5,-2008(gp) # 200001d0 <USBFS_SetupReqIndex>
     d68:	07c2                	slli	a5,a5,0x10
     d6a:	83c1                	srli	a5,a5,0x10
     d6c:	ef81                	bnez	a5,d84 <USBFS_IRQHandler+0x4ec>
     d6e:	8341c783          	lbu	a5,-1996(gp) # 200001dc <USBFS_HidProtocol>
     d72:	0ff7f713          	zext.b	a4,a5
     d76:	87018793          	addi	a5,gp,-1936 # 20000218 <USBFS_EP0_Buf>
     d7a:	a398                	sb	a4,0(a5)
     d7c:	4785                	li	a5,1
     d7e:	fef41623          	sh	a5,-20(s0)
     d82:	aba9                	j	12dc <USBFS_IRQHandler+0xa44>
     d84:	8281d783          	lhu	a5,-2008(gp) # 200001d0 <USBFS_SetupReqIndex>
     d88:	01079713          	slli	a4,a5,0x10
     d8c:	8341                	srli	a4,a4,0x10
     d8e:	4785                	li	a5,1
     d90:	00f71e63          	bne	a4,a5,dac <USBFS_IRQHandler+0x514>
     d94:	83418793          	addi	a5,gp,-1996 # 200001dc <USBFS_HidProtocol>
     d98:	339c                	lbu	a5,1(a5)
     d9a:	0ff7f713          	zext.b	a4,a5
     d9e:	87018793          	addi	a5,gp,-1936 # 20000218 <USBFS_EP0_Buf>
     da2:	a398                	sb	a4,0(a5)
     da4:	4785                	li	a5,1
     da6:	fef41623          	sh	a5,-20(s0)
     daa:	ab0d                	j	12dc <USBFS_IRQHandler+0xa44>
     dac:	57fd                	li	a5,-1
     dae:	fef407a3          	sb	a5,-17(s0)
     db2:	a32d                	j	12dc <USBFS_IRQHandler+0xa44>
     db4:	57fd                	li	a5,-1
     db6:	fef407a3          	sb	a5,-17(s0)
     dba:	a30d                	j	12dc <USBFS_IRQHandler+0xa44>
     dbc:	8241c783          	lbu	a5,-2012(gp) # 200001cc <USBFS_SetupReqCode>
     dc0:	0ff7f793          	zext.b	a5,a5
     dc4:	472d                	li	a4,11
     dc6:	4ef76e63          	bltu	a4,a5,12c2 <USBFS_IRQHandler+0xa2a>
     dca:	00279713          	slli	a4,a5,0x2
     dce:	6791                	lui	a5,0x4
     dd0:	4c078793          	addi	a5,a5,1216 # 44c0 <_read+0x19e>
     dd4:	97ba                	add	a5,a5,a4
     dd6:	439c                	lw	a5,0(a5)
     dd8:	8782                	jr	a5
     dda:	8261d783          	lhu	a5,-2010(gp) # 200001ce <USBFS_SetupReqValue>
     dde:	07c2                	slli	a5,a5,0x10
     de0:	83c1                	srli	a5,a5,0x10
     de2:	83a1                	srli	a5,a5,0x8
     de4:	07c2                	slli	a5,a5,0x10
     de6:	83c1                	srli	a5,a5,0x10
     de8:	0ff7f793          	zext.b	a5,a5
     dec:	02200713          	li	a4,34
     df0:	16f76d63          	bltu	a4,a5,f6a <USBFS_IRQHandler+0x6d2>
     df4:	00279713          	slli	a4,a5,0x2
     df8:	6791                	lui	a5,0x4
     dfa:	4f078793          	addi	a5,a5,1264 # 44f0 <_read+0x1ce>
     dfe:	97ba                	add	a5,a5,a4
     e00:	439c                	lw	a5,0(a5)
     e02:	8782                	jr	a5
     e04:	6711                	lui	a4,0x4
     e06:	57c70713          	addi	a4,a4,1404 # 457c <MyDevDescr>
     e0a:	82e1a023          	sw	a4,-2016(gp) # 200001c8 <pUSBFS_Descr>
     e0e:	6791                	lui	a5,0x4
     e10:	57c78793          	addi	a5,a5,1404 # 457c <MyDevDescr>
     e14:	239c                	lbu	a5,0(a5)
     e16:	fef41623          	sh	a5,-20(s0)
     e1a:	aaa1                	j	f72 <USBFS_IRQHandler+0x6da>
     e1c:	6711                	lui	a4,0x4
     e1e:	59070713          	addi	a4,a4,1424 # 4590 <MyCfgDescr>
     e22:	82e1a023          	sw	a4,-2016(gp) # 200001c8 <pUSBFS_Descr>
     e26:	6791                	lui	a5,0x4
     e28:	59078793          	addi	a5,a5,1424 # 4590 <MyCfgDescr>
     e2c:	23bc                	lbu	a5,2(a5)
     e2e:	873e                	mv	a4,a5
     e30:	6791                	lui	a5,0x4
     e32:	59078793          	addi	a5,a5,1424 # 4590 <MyCfgDescr>
     e36:	33bc                	lbu	a5,3(a5)
     e38:	07a2                	slli	a5,a5,0x8
     e3a:	07c2                	slli	a5,a5,0x10
     e3c:	83c1                	srli	a5,a5,0x10
     e3e:	97ba                	add	a5,a5,a4
     e40:	fef41623          	sh	a5,-20(s0)
     e44:	a23d                	j	f72 <USBFS_IRQHandler+0x6da>
     e46:	8281d783          	lhu	a5,-2008(gp) # 200001d0 <USBFS_SetupReqIndex>
     e4a:	07c2                	slli	a5,a5,0x10
     e4c:	83c1                	srli	a5,a5,0x10
     e4e:	eb91                	bnez	a5,e62 <USBFS_IRQHandler+0x5ca>
     e50:	6711                	lui	a4,0x4
     e52:	5a270713          	addi	a4,a4,1442 # 45a2 <MyCfgDescr+0x12>
     e56:	82e1a023          	sw	a4,-2016(gp) # 200001c8 <pUSBFS_Descr>
     e5a:	47a5                	li	a5,9
     e5c:	fef41623          	sh	a5,-20(s0)
     e60:	aa09                	j	f72 <USBFS_IRQHandler+0x6da>
     e62:	8281d783          	lhu	a5,-2008(gp) # 200001d0 <USBFS_SetupReqIndex>
     e66:	01079713          	slli	a4,a5,0x10
     e6a:	8341                	srli	a4,a4,0x10
     e6c:	4785                	li	a5,1
     e6e:	00f71b63          	bne	a4,a5,e84 <USBFS_IRQHandler+0x5ec>
     e72:	6711                	lui	a4,0x4
     e74:	5bb70713          	addi	a4,a4,1467 # 45bb <MyCfgDescr+0x2b>
     e78:	82e1a023          	sw	a4,-2016(gp) # 200001c8 <pUSBFS_Descr>
     e7c:	47a5                	li	a5,9
     e7e:	fef41623          	sh	a5,-20(s0)
     e82:	a8c5                	j	f72 <USBFS_IRQHandler+0x6da>
     e84:	57fd                	li	a5,-1
     e86:	fef407a3          	sb	a5,-17(s0)
     e8a:	a0e5                	j	f72 <USBFS_IRQHandler+0x6da>
     e8c:	8281d783          	lhu	a5,-2008(gp) # 200001d0 <USBFS_SetupReqIndex>
     e90:	07c2                	slli	a5,a5,0x10
     e92:	83c1                	srli	a5,a5,0x10
     e94:	eb99                	bnez	a5,eaa <USBFS_IRQHandler+0x612>
     e96:	6711                	lui	a4,0x4
     e98:	5cc70713          	addi	a4,a4,1484 # 45cc <KeyRepDesc>
     e9c:	82e1a023          	sw	a4,-2016(gp) # 200001c8 <pUSBFS_Descr>
     ea0:	03e00793          	li	a5,62
     ea4:	fef41623          	sh	a5,-20(s0)
     ea8:	a0e9                	j	f72 <USBFS_IRQHandler+0x6da>
     eaa:	8281d783          	lhu	a5,-2008(gp) # 200001d0 <USBFS_SetupReqIndex>
     eae:	01079713          	slli	a4,a5,0x10
     eb2:	8341                	srli	a4,a4,0x10
     eb4:	4785                	li	a5,1
     eb6:	00f71c63          	bne	a4,a5,ece <USBFS_IRQHandler+0x636>
     eba:	6711                	lui	a4,0x4
     ebc:	60c70713          	addi	a4,a4,1548 # 460c <MouseRepDesc>
     ec0:	82e1a023          	sw	a4,-2016(gp) # 200001c8 <pUSBFS_Descr>
     ec4:	03400793          	li	a5,52
     ec8:	fef41623          	sh	a5,-20(s0)
     ecc:	a05d                	j	f72 <USBFS_IRQHandler+0x6da>
     ece:	57fd                	li	a5,-1
     ed0:	fef407a3          	sb	a5,-17(s0)
     ed4:	a879                	j	f72 <USBFS_IRQHandler+0x6da>
     ed6:	8261d783          	lhu	a5,-2010(gp) # 200001ce <USBFS_SetupReqValue>
     eda:	07c2                	slli	a5,a5,0x10
     edc:	83c1                	srli	a5,a5,0x10
     ede:	0ff7f793          	zext.b	a5,a5
     ee2:	470d                	li	a4,3
     ee4:	06e78263          	beq	a5,a4,f48 <USBFS_IRQHandler+0x6b0>
     ee8:	470d                	li	a4,3
     eea:	06f74b63          	blt	a4,a5,f60 <USBFS_IRQHandler+0x6c8>
     eee:	4709                	li	a4,2
     ef0:	04e78063          	beq	a5,a4,f30 <USBFS_IRQHandler+0x698>
     ef4:	4709                	li	a4,2
     ef6:	06f74563          	blt	a4,a5,f60 <USBFS_IRQHandler+0x6c8>
     efa:	c789                	beqz	a5,f04 <USBFS_IRQHandler+0x66c>
     efc:	4705                	li	a4,1
     efe:	00e78d63          	beq	a5,a4,f18 <USBFS_IRQHandler+0x680>
     f02:	a8b9                	j	f60 <USBFS_IRQHandler+0x6c8>
     f04:	81818713          	addi	a4,gp,-2024 # 200001c0 <MyLangDescr>
     f08:	82e1a023          	sw	a4,-2016(gp) # 200001c8 <pUSBFS_Descr>
     f0c:	81818793          	addi	a5,gp,-2024 # 200001c0 <MyLangDescr>
     f10:	239c                	lbu	a5,0(a5)
     f12:	fef41623          	sh	a5,-20(s0)
     f16:	a889                	j	f68 <USBFS_IRQHandler+0x6d0>
     f18:	6711                	lui	a4,0x4
     f1a:	64070713          	addi	a4,a4,1600 # 4640 <MyManuInfo>
     f1e:	82e1a023          	sw	a4,-2016(gp) # 200001c8 <pUSBFS_Descr>
     f22:	6791                	lui	a5,0x4
     f24:	64078793          	addi	a5,a5,1600 # 4640 <MyManuInfo>
     f28:	239c                	lbu	a5,0(a5)
     f2a:	fef41623          	sh	a5,-20(s0)
     f2e:	a82d                	j	f68 <USBFS_IRQHandler+0x6d0>
     f30:	6711                	lui	a4,0x4
     f32:	65070713          	addi	a4,a4,1616 # 4650 <MyProdInfo>
     f36:	82e1a023          	sw	a4,-2016(gp) # 200001c8 <pUSBFS_Descr>
     f3a:	6791                	lui	a5,0x4
     f3c:	65078793          	addi	a5,a5,1616 # 4650 <MyProdInfo>
     f40:	239c                	lbu	a5,0(a5)
     f42:	fef41623          	sh	a5,-20(s0)
     f46:	a00d                	j	f68 <USBFS_IRQHandler+0x6d0>
     f48:	6711                	lui	a4,0x4
     f4a:	66c70713          	addi	a4,a4,1644 # 466c <MySerNumInfo>
     f4e:	82e1a023          	sw	a4,-2016(gp) # 200001c8 <pUSBFS_Descr>
     f52:	6791                	lui	a5,0x4
     f54:	66c78793          	addi	a5,a5,1644 # 466c <MySerNumInfo>
     f58:	239c                	lbu	a5,0(a5)
     f5a:	fef41623          	sh	a5,-20(s0)
     f5e:	a029                	j	f68 <USBFS_IRQHandler+0x6d0>
     f60:	57fd                	li	a5,-1
     f62:	fef407a3          	sb	a5,-17(s0)
     f66:	0001                	nop
     f68:	a029                	j	f72 <USBFS_IRQHandler+0x6da>
     f6a:	57fd                	li	a5,-1
     f6c:	fef407a3          	sb	a5,-17(s0)
     f70:	0001                	nop
     f72:	82a1d783          	lhu	a5,-2006(gp) # 200001d2 <USBFS_SetupReqLen>
     f76:	07c2                	slli	a5,a5,0x10
     f78:	83c1                	srli	a5,a5,0x10
     f7a:	fec45703          	lhu	a4,-20(s0)
     f7e:	00f77663          	bgeu	a4,a5,f8a <USBFS_IRQHandler+0x6f2>
     f82:	fec45703          	lhu	a4,-20(s0)
     f86:	82e19523          	sh	a4,-2006(gp) # 200001d2 <USBFS_SetupReqLen>
     f8a:	82a1d783          	lhu	a5,-2006(gp) # 200001d2 <USBFS_SetupReqLen>
     f8e:	01079713          	slli	a4,a5,0x10
     f92:	8341                	srli	a4,a4,0x10
     f94:	03f00793          	li	a5,63
     f98:	00e7e763          	bltu	a5,a4,fa6 <USBFS_IRQHandler+0x70e>
     f9c:	82a1d783          	lhu	a5,-2006(gp) # 200001d2 <USBFS_SetupReqLen>
     fa0:	07c2                	slli	a5,a5,0x10
     fa2:	83c1                	srli	a5,a5,0x10
     fa4:	a019                	j	faa <USBFS_IRQHandler+0x712>
     fa6:	04000793          	li	a5,64
     faa:	fef41623          	sh	a5,-20(s0)
     fae:	8201a783          	lw	a5,-2016(gp) # 200001c8 <pUSBFS_Descr>
     fb2:	fec45703          	lhu	a4,-20(s0)
     fb6:	863a                	mv	a2,a4
     fb8:	85be                	mv	a1,a5
     fba:	87018513          	addi	a0,gp,-1936 # 20000218 <USBFS_EP0_Buf>
     fbe:	942ff0ef          	jal	ra,100 <memcpy>
     fc2:	8201a703          	lw	a4,-2016(gp) # 200001c8 <pUSBFS_Descr>
     fc6:	fec45783          	lhu	a5,-20(s0)
     fca:	973e                	add	a4,a4,a5
     fcc:	82e1a023          	sw	a4,-2016(gp) # 200001c8 <pUSBFS_Descr>
     fd0:	a631                	j	12dc <USBFS_IRQHandler+0xa44>
     fd2:	8261d783          	lhu	a5,-2010(gp) # 200001ce <USBFS_SetupReqValue>
     fd6:	07c2                	slli	a5,a5,0x10
     fd8:	83c1                	srli	a5,a5,0x10
     fda:	0ff7f713          	zext.b	a4,a5
     fde:	82e186a3          	sb	a4,-2003(gp) # 200001d5 <USBFS_DevAddr>
     fe2:	aced                	j	12dc <USBFS_IRQHandler+0xa44>
     fe4:	82c1c783          	lbu	a5,-2004(gp) # 200001d4 <USBFS_DevConfig>
     fe8:	0ff7f713          	zext.b	a4,a5
     fec:	87018793          	addi	a5,gp,-1936 # 20000218 <USBFS_EP0_Buf>
     ff0:	a398                	sb	a4,0(a5)
     ff2:	82a1d783          	lhu	a5,-2006(gp) # 200001d2 <USBFS_SetupReqLen>
     ff6:	01079713          	slli	a4,a5,0x10
     ffa:	8341                	srli	a4,a4,0x10
     ffc:	4785                	li	a5,1
     ffe:	2ce7fa63          	bgeu	a5,a4,12d2 <USBFS_IRQHandler+0xa3a>
    1002:	4705                	li	a4,1
    1004:	82e19523          	sh	a4,-2006(gp) # 200001d2 <USBFS_SetupReqLen>
    1008:	a4e9                	j	12d2 <USBFS_IRQHandler+0xa3a>
    100a:	8261d783          	lhu	a5,-2010(gp) # 200001ce <USBFS_SetupReqValue>
    100e:	07c2                	slli	a5,a5,0x10
    1010:	83c1                	srli	a5,a5,0x10
    1012:	0ff7f713          	zext.b	a4,a5
    1016:	82e18623          	sb	a4,-2004(gp) # 200001d4 <USBFS_DevConfig>
    101a:	4705                	li	a4,1
    101c:	82e187a3          	sb	a4,-2001(gp) # 200001d7 <USBFS_DevEnumStatus>
    1020:	ac75                	j	12dc <USBFS_IRQHandler+0xa44>
    1022:	8251c783          	lbu	a5,-2011(gp) # 200001cd <USBFS_SetupReqType>
    1026:	0ff7f793          	zext.b	a5,a5
    102a:	8bfd                	andi	a5,a5,31
    102c:	eb85                	bnez	a5,105c <USBFS_IRQHandler+0x7c4>
    102e:	8261d783          	lhu	a5,-2010(gp) # 200001ce <USBFS_SetupReqValue>
    1032:	07c2                	slli	a5,a5,0x10
    1034:	83c1                	srli	a5,a5,0x10
    1036:	0ff7f713          	zext.b	a4,a5
    103a:	4785                	li	a5,1
    103c:	00f71c63          	bne	a4,a5,1054 <USBFS_IRQHandler+0x7bc>
    1040:	82e1c783          	lbu	a5,-2002(gp) # 200001d6 <USBFS_DevSleepStatus>
    1044:	0ff7f793          	zext.b	a5,a5
    1048:	9bf9                	andi	a5,a5,-2
    104a:	0ff7f713          	zext.b	a4,a5
    104e:	82e18723          	sb	a4,-2002(gp) # 200001d6 <USBFS_DevSleepStatus>
    1052:	a469                	j	12dc <USBFS_IRQHandler+0xa44>
    1054:	57fd                	li	a5,-1
    1056:	fef407a3          	sb	a5,-17(s0)
    105a:	a449                	j	12dc <USBFS_IRQHandler+0xa44>
    105c:	8251c783          	lbu	a5,-2011(gp) # 200001cd <USBFS_SetupReqType>
    1060:	0ff7f793          	zext.b	a5,a5
    1064:	01f7f713          	andi	a4,a5,31
    1068:	4789                	li	a5,2
    106a:	04f71e63          	bne	a4,a5,10c6 <USBFS_IRQHandler+0x82e>
    106e:	8261d783          	lhu	a5,-2010(gp) # 200001ce <USBFS_SetupReqValue>
    1072:	07c2                	slli	a5,a5,0x10
    1074:	83c1                	srli	a5,a5,0x10
    1076:	0ff7f793          	zext.b	a5,a5
    107a:	e3b1                	bnez	a5,10be <USBFS_IRQHandler+0x826>
    107c:	8281d783          	lhu	a5,-2008(gp) # 200001d0 <USBFS_SetupReqIndex>
    1080:	07c2                	slli	a5,a5,0x10
    1082:	83c1                	srli	a5,a5,0x10
    1084:	0ff7f793          	zext.b	a5,a5
    1088:	08100713          	li	a4,129
    108c:	00e78763          	beq	a5,a4,109a <USBFS_IRQHandler+0x802>
    1090:	08200713          	li	a4,130
    1094:	00e78a63          	beq	a5,a4,10a8 <USBFS_IRQHandler+0x810>
    1098:	a839                	j	10b6 <USBFS_IRQHandler+0x81e>
    109a:	400237b7          	lui	a5,0x40023
    109e:	40078793          	addi	a5,a5,1024 # 40023400 <_eusrstack+0x2001e400>
    10a2:	4709                	li	a4,2
    10a4:	b3fa                	sh	a4,38(a5)
    10a6:	a025                	j	10ce <USBFS_IRQHandler+0x836>
    10a8:	400237b7          	lui	a5,0x40023
    10ac:	40078793          	addi	a5,a5,1024 # 40023400 <_eusrstack+0x2001e400>
    10b0:	4709                	li	a4,2
    10b2:	b7ba                	sh	a4,42(a5)
    10b4:	a829                	j	10ce <USBFS_IRQHandler+0x836>
    10b6:	57fd                	li	a5,-1
    10b8:	fef407a3          	sb	a5,-17(s0)
    10bc:	a809                	j	10ce <USBFS_IRQHandler+0x836>
    10be:	57fd                	li	a5,-1
    10c0:	fef407a3          	sb	a5,-17(s0)
    10c4:	ac21                	j	12dc <USBFS_IRQHandler+0xa44>
    10c6:	57fd                	li	a5,-1
    10c8:	fef407a3          	sb	a5,-17(s0)
    10cc:	ac01                	j	12dc <USBFS_IRQHandler+0xa44>
    10ce:	a439                	j	12dc <USBFS_IRQHandler+0xa44>
    10d0:	8251c783          	lbu	a5,-2011(gp) # 200001cd <USBFS_SetupReqType>
    10d4:	0ff7f793          	zext.b	a5,a5
    10d8:	8bfd                	andi	a5,a5,31
    10da:	e7a1                	bnez	a5,1122 <USBFS_IRQHandler+0x88a>
    10dc:	8261d783          	lhu	a5,-2010(gp) # 200001ce <USBFS_SetupReqValue>
    10e0:	07c2                	slli	a5,a5,0x10
    10e2:	83c1                	srli	a5,a5,0x10
    10e4:	0ff7f713          	zext.b	a4,a5
    10e8:	4785                	li	a5,1
    10ea:	02f71863          	bne	a4,a5,111a <USBFS_IRQHandler+0x882>
    10ee:	6791                	lui	a5,0x4
    10f0:	59078793          	addi	a5,a5,1424 # 4590 <MyCfgDescr>
    10f4:	33fc                	lbu	a5,7(a5)
    10f6:	0207f793          	andi	a5,a5,32
    10fa:	cf81                	beqz	a5,1112 <USBFS_IRQHandler+0x87a>
    10fc:	82e1c783          	lbu	a5,-2002(gp) # 200001d6 <USBFS_DevSleepStatus>
    1100:	0ff7f793          	zext.b	a5,a5
    1104:	0017e793          	ori	a5,a5,1
    1108:	0ff7f713          	zext.b	a4,a5
    110c:	82e18723          	sb	a4,-2002(gp) # 200001d6 <USBFS_DevSleepStatus>
    1110:	a2f1                	j	12dc <USBFS_IRQHandler+0xa44>
    1112:	57fd                	li	a5,-1
    1114:	fef407a3          	sb	a5,-17(s0)
    1118:	a2d1                	j	12dc <USBFS_IRQHandler+0xa44>
    111a:	57fd                	li	a5,-1
    111c:	fef407a3          	sb	a5,-17(s0)
    1120:	aa75                	j	12dc <USBFS_IRQHandler+0xa44>
    1122:	8251c783          	lbu	a5,-2011(gp) # 200001cd <USBFS_SetupReqType>
    1126:	0ff7f793          	zext.b	a5,a5
    112a:	01f7f713          	andi	a4,a5,31
    112e:	4789                	li	a5,2
    1130:	08f71463          	bne	a4,a5,11b8 <USBFS_IRQHandler+0x920>
    1134:	8261d783          	lhu	a5,-2010(gp) # 200001ce <USBFS_SetupReqValue>
    1138:	07c2                	slli	a5,a5,0x10
    113a:	83c1                	srli	a5,a5,0x10
    113c:	0ff7f793          	zext.b	a5,a5
    1140:	eba5                	bnez	a5,11b0 <USBFS_IRQHandler+0x918>
    1142:	8281d783          	lhu	a5,-2008(gp) # 200001d0 <USBFS_SetupReqIndex>
    1146:	07c2                	slli	a5,a5,0x10
    1148:	83c1                	srli	a5,a5,0x10
    114a:	0ff7f793          	zext.b	a5,a5
    114e:	08100713          	li	a4,129
    1152:	00e78763          	beq	a5,a4,1160 <USBFS_IRQHandler+0x8c8>
    1156:	08200713          	li	a4,130
    115a:	02e78563          	beq	a5,a4,1184 <USBFS_IRQHandler+0x8ec>
    115e:	a0a9                	j	11a8 <USBFS_IRQHandler+0x910>
    1160:	400237b7          	lui	a5,0x40023
    1164:	40078793          	addi	a5,a5,1024 # 40023400 <_eusrstack+0x2001e400>
    1168:	33fe                	lhu	a5,38(a5)
    116a:	01079713          	slli	a4,a5,0x10
    116e:	8341                	srli	a4,a4,0x10
    1170:	400237b7          	lui	a5,0x40023
    1174:	40078793          	addi	a5,a5,1024 # 40023400 <_eusrstack+0x2001e400>
    1178:	00376713          	ori	a4,a4,3
    117c:	0742                	slli	a4,a4,0x10
    117e:	8341                	srli	a4,a4,0x10
    1180:	b3fa                	sh	a4,38(a5)
    1182:	a83d                	j	11c0 <USBFS_IRQHandler+0x928>
    1184:	400237b7          	lui	a5,0x40023
    1188:	40078793          	addi	a5,a5,1024 # 40023400 <_eusrstack+0x2001e400>
    118c:	37be                	lhu	a5,42(a5)
    118e:	01079713          	slli	a4,a5,0x10
    1192:	8341                	srli	a4,a4,0x10
    1194:	400237b7          	lui	a5,0x40023
    1198:	40078793          	addi	a5,a5,1024 # 40023400 <_eusrstack+0x2001e400>
    119c:	00376713          	ori	a4,a4,3
    11a0:	0742                	slli	a4,a4,0x10
    11a2:	8341                	srli	a4,a4,0x10
    11a4:	b7ba                	sh	a4,42(a5)
    11a6:	a829                	j	11c0 <USBFS_IRQHandler+0x928>
    11a8:	57fd                	li	a5,-1
    11aa:	fef407a3          	sb	a5,-17(s0)
    11ae:	a809                	j	11c0 <USBFS_IRQHandler+0x928>
    11b0:	57fd                	li	a5,-1
    11b2:	fef407a3          	sb	a5,-17(s0)
    11b6:	a21d                	j	12dc <USBFS_IRQHandler+0xa44>
    11b8:	57fd                	li	a5,-1
    11ba:	fef407a3          	sb	a5,-17(s0)
    11be:	aa39                	j	12dc <USBFS_IRQHandler+0xa44>
    11c0:	aa31                	j	12dc <USBFS_IRQHandler+0xa44>
    11c2:	87018793          	addi	a5,gp,-1936 # 20000218 <USBFS_EP0_Buf>
    11c6:	00078023          	sb	zero,0(a5)
    11ca:	82a1d783          	lhu	a5,-2006(gp) # 200001d2 <USBFS_SetupReqLen>
    11ce:	01079713          	slli	a4,a5,0x10
    11d2:	8341                	srli	a4,a4,0x10
    11d4:	4785                	li	a5,1
    11d6:	10e7f063          	bgeu	a5,a4,12d6 <USBFS_IRQHandler+0xa3e>
    11da:	4705                	li	a4,1
    11dc:	82e19523          	sh	a4,-2006(gp) # 200001d2 <USBFS_SetupReqLen>
    11e0:	a8dd                	j	12d6 <USBFS_IRQHandler+0xa3e>
    11e2:	87018793          	addi	a5,gp,-1936 # 20000218 <USBFS_EP0_Buf>
    11e6:	00078023          	sb	zero,0(a5)
    11ea:	87018793          	addi	a5,gp,-1936 # 20000218 <USBFS_EP0_Buf>
    11ee:	000780a3          	sb	zero,1(a5)
    11f2:	8251c783          	lbu	a5,-2011(gp) # 200001cd <USBFS_SetupReqType>
    11f6:	0ff7f793          	zext.b	a5,a5
    11fa:	8bfd                	andi	a5,a5,31
    11fc:	e38d                	bnez	a5,121e <USBFS_IRQHandler+0x986>
    11fe:	82e1c783          	lbu	a5,-2002(gp) # 200001d6 <USBFS_DevSleepStatus>
    1202:	0ff7f793          	zext.b	a5,a5
    1206:	8b85                	andi	a5,a5,1
    1208:	c791                	beqz	a5,1214 <USBFS_IRQHandler+0x97c>
    120a:	87018793          	addi	a5,gp,-1936 # 20000218 <USBFS_EP0_Buf>
    120e:	4709                	li	a4,2
    1210:	a398                	sb	a4,0(a5)
    1212:	a861                	j	12aa <USBFS_IRQHandler+0xa12>
    1214:	87018793          	addi	a5,gp,-1936 # 20000218 <USBFS_EP0_Buf>
    1218:	00078023          	sb	zero,0(a5)
    121c:	a079                	j	12aa <USBFS_IRQHandler+0xa12>
    121e:	8251c783          	lbu	a5,-2011(gp) # 200001cd <USBFS_SetupReqType>
    1222:	0ff7f793          	zext.b	a5,a5
    1226:	01f7f713          	andi	a4,a5,31
    122a:	4789                	li	a5,2
    122c:	06f71c63          	bne	a4,a5,12a4 <USBFS_IRQHandler+0xa0c>
    1230:	8281d783          	lhu	a5,-2008(gp) # 200001d0 <USBFS_SetupReqIndex>
    1234:	07c2                	slli	a5,a5,0x10
    1236:	83c1                	srli	a5,a5,0x10
    1238:	0ff7f713          	zext.b	a4,a5
    123c:	08100793          	li	a5,129
    1240:	02f71363          	bne	a4,a5,1266 <USBFS_IRQHandler+0x9ce>
    1244:	400237b7          	lui	a5,0x40023
    1248:	40078793          	addi	a5,a5,1024 # 40023400 <_eusrstack+0x2001e400>
    124c:	33fe                	lhu	a5,38(a5)
    124e:	07c2                	slli	a5,a5,0x10
    1250:	83c1                	srli	a5,a5,0x10
    1252:	0037f713          	andi	a4,a5,3
    1256:	478d                	li	a5,3
    1258:	04f71963          	bne	a4,a5,12aa <USBFS_IRQHandler+0xa12>
    125c:	87018793          	addi	a5,gp,-1936 # 20000218 <USBFS_EP0_Buf>
    1260:	4705                	li	a4,1
    1262:	a398                	sb	a4,0(a5)
    1264:	a099                	j	12aa <USBFS_IRQHandler+0xa12>
    1266:	8281d783          	lhu	a5,-2008(gp) # 200001d0 <USBFS_SetupReqIndex>
    126a:	07c2                	slli	a5,a5,0x10
    126c:	83c1                	srli	a5,a5,0x10
    126e:	0ff7f713          	zext.b	a4,a5
    1272:	08200793          	li	a5,130
    1276:	02f71363          	bne	a4,a5,129c <USBFS_IRQHandler+0xa04>
    127a:	400237b7          	lui	a5,0x40023
    127e:	40078793          	addi	a5,a5,1024 # 40023400 <_eusrstack+0x2001e400>
    1282:	37be                	lhu	a5,42(a5)
    1284:	07c2                	slli	a5,a5,0x10
    1286:	83c1                	srli	a5,a5,0x10
    1288:	0037f713          	andi	a4,a5,3
    128c:	478d                	li	a5,3
    128e:	00f71e63          	bne	a4,a5,12aa <USBFS_IRQHandler+0xa12>
    1292:	87018793          	addi	a5,gp,-1936 # 20000218 <USBFS_EP0_Buf>
    1296:	4705                	li	a4,1
    1298:	a398                	sb	a4,0(a5)
    129a:	a801                	j	12aa <USBFS_IRQHandler+0xa12>
    129c:	57fd                	li	a5,-1
    129e:	fef407a3          	sb	a5,-17(s0)
    12a2:	a021                	j	12aa <USBFS_IRQHandler+0xa12>
    12a4:	57fd                	li	a5,-1
    12a6:	fef407a3          	sb	a5,-17(s0)
    12aa:	82a1d783          	lhu	a5,-2006(gp) # 200001d2 <USBFS_SetupReqLen>
    12ae:	01079713          	slli	a4,a5,0x10
    12b2:	8341                	srli	a4,a4,0x10
    12b4:	4789                	li	a5,2
    12b6:	02e7f263          	bgeu	a5,a4,12da <USBFS_IRQHandler+0xa42>
    12ba:	4709                	li	a4,2
    12bc:	82e19523          	sh	a4,-2006(gp) # 200001d2 <USBFS_SetupReqLen>
    12c0:	a829                	j	12da <USBFS_IRQHandler+0xa42>
    12c2:	57fd                	li	a5,-1
    12c4:	fef407a3          	sb	a5,-17(s0)
    12c8:	a811                	j	12dc <USBFS_IRQHandler+0xa44>
    12ca:	0001                	nop
    12cc:	a801                	j	12dc <USBFS_IRQHandler+0xa44>
    12ce:	0001                	nop
    12d0:	a031                	j	12dc <USBFS_IRQHandler+0xa44>
    12d2:	0001                	nop
    12d4:	a021                	j	12dc <USBFS_IRQHandler+0xa44>
    12d6:	0001                	nop
    12d8:	a011                	j	12dc <USBFS_IRQHandler+0xa44>
    12da:	0001                	nop
    12dc:	fef44703          	lbu	a4,-17(s0)
    12e0:	0ff00793          	li	a5,255
    12e4:	00f71a63          	bne	a4,a5,12f8 <USBFS_IRQHandler+0xa60>
    12e8:	400237b7          	lui	a5,0x40023
    12ec:	40078793          	addi	a5,a5,1024 # 40023400 <_eusrstack+0x2001e400>
    12f0:	0cf00713          	li	a4,207
    12f4:	b3ba                	sh	a4,34(a5)
    12f6:	aa11                	j	140a <USBFS_IRQHandler+0xb72>
    12f8:	8251c783          	lbu	a5,-2011(gp) # 200001cd <USBFS_SetupReqType>
    12fc:	0ff7f793          	zext.b	a5,a5
    1300:	07e2                	slli	a5,a5,0x18
    1302:	87e1                	srai	a5,a5,0x18
    1304:	0807d163          	bgez	a5,1386 <USBFS_IRQHandler+0xaee>
    1308:	82a1d783          	lhu	a5,-2006(gp) # 200001d2 <USBFS_SetupReqLen>
    130c:	01079713          	slli	a4,a5,0x10
    1310:	8341                	srli	a4,a4,0x10
    1312:	04000793          	li	a5,64
    1316:	00e7e763          	bltu	a5,a4,1324 <USBFS_IRQHandler+0xa8c>
    131a:	82a1d783          	lhu	a5,-2006(gp) # 200001d2 <USBFS_SetupReqLen>
    131e:	07c2                	slli	a5,a5,0x10
    1320:	83c1                	srli	a5,a5,0x10
    1322:	a019                	j	1328 <USBFS_IRQHandler+0xa90>
    1324:	04000793          	li	a5,64
    1328:	fef41623          	sh	a5,-20(s0)
    132c:	82a1d783          	lhu	a5,-2006(gp) # 200001d2 <USBFS_SetupReqLen>
    1330:	07c2                	slli	a5,a5,0x10
    1332:	83c1                	srli	a5,a5,0x10
    1334:	fec45703          	lhu	a4,-20(s0)
    1338:	8f99                	sub	a5,a5,a4
    133a:	01079713          	slli	a4,a5,0x10
    133e:	8341                	srli	a4,a4,0x10
    1340:	82e19523          	sh	a4,-2006(gp) # 200001d2 <USBFS_SetupReqLen>
    1344:	400237b7          	lui	a5,0x40023
    1348:	40078793          	addi	a5,a5,1024 # 40023400 <_eusrstack+0x2001e400>
    134c:	fec45703          	lhu	a4,-20(s0)
    1350:	b39a                	sh	a4,32(a5)
    1352:	400237b7          	lui	a5,0x40023
    1356:	40078793          	addi	a5,a5,1024 # 40023400 <_eusrstack+0x2001e400>
    135a:	33be                	lhu	a5,34(a5)
    135c:	07c2                	slli	a5,a5,0x10
    135e:	83c1                	srli	a5,a5,0x10
    1360:	07c2                	slli	a5,a5,0x10
    1362:	87c1                	srai	a5,a5,0x10
    1364:	fbc7f793          	andi	a5,a5,-68
    1368:	07c2                	slli	a5,a5,0x10
    136a:	87c1                	srai	a5,a5,0x10
    136c:	0407e793          	ori	a5,a5,64
    1370:	01079713          	slli	a4,a5,0x10
    1374:	8741                	srai	a4,a4,0x10
    1376:	400237b7          	lui	a5,0x40023
    137a:	40078793          	addi	a5,a5,1024 # 40023400 <_eusrstack+0x2001e400>
    137e:	0742                	slli	a4,a4,0x10
    1380:	8341                	srli	a4,a4,0x10
    1382:	b3ba                	sh	a4,34(a5)
    1384:	a059                	j	140a <USBFS_IRQHandler+0xb72>
    1386:	82a1d783          	lhu	a5,-2006(gp) # 200001d2 <USBFS_SetupReqLen>
    138a:	07c2                	slli	a5,a5,0x10
    138c:	83c1                	srli	a5,a5,0x10
    138e:	e3a9                	bnez	a5,13d0 <USBFS_IRQHandler+0xb38>
    1390:	400237b7          	lui	a5,0x40023
    1394:	40078793          	addi	a5,a5,1024 # 40023400 <_eusrstack+0x2001e400>
    1398:	02079023          	sh	zero,32(a5)
    139c:	400237b7          	lui	a5,0x40023
    13a0:	40078793          	addi	a5,a5,1024 # 40023400 <_eusrstack+0x2001e400>
    13a4:	33be                	lhu	a5,34(a5)
    13a6:	07c2                	slli	a5,a5,0x10
    13a8:	83c1                	srli	a5,a5,0x10
    13aa:	07c2                	slli	a5,a5,0x10
    13ac:	87c1                	srai	a5,a5,0x10
    13ae:	fbc7f793          	andi	a5,a5,-68
    13b2:	07c2                	slli	a5,a5,0x10
    13b4:	87c1                	srai	a5,a5,0x10
    13b6:	0407e793          	ori	a5,a5,64
    13ba:	01079713          	slli	a4,a5,0x10
    13be:	8741                	srai	a4,a4,0x10
    13c0:	400237b7          	lui	a5,0x40023
    13c4:	40078793          	addi	a5,a5,1024 # 40023400 <_eusrstack+0x2001e400>
    13c8:	0742                	slli	a4,a4,0x10
    13ca:	8341                	srli	a4,a4,0x10
    13cc:	b3ba                	sh	a4,34(a5)
    13ce:	a835                	j	140a <USBFS_IRQHandler+0xb72>
    13d0:	400237b7          	lui	a5,0x40023
    13d4:	40078793          	addi	a5,a5,1024 # 40023400 <_eusrstack+0x2001e400>
    13d8:	33be                	lhu	a5,34(a5)
    13da:	07c2                	slli	a5,a5,0x10
    13dc:	83c1                	srli	a5,a5,0x10
    13de:	07c2                	slli	a5,a5,0x10
    13e0:	87c1                	srai	a5,a5,0x10
    13e2:	f737f793          	andi	a5,a5,-141
    13e6:	07c2                	slli	a5,a5,0x10
    13e8:	87c1                	srai	a5,a5,0x10
    13ea:	0807e793          	ori	a5,a5,128
    13ee:	01079713          	slli	a4,a5,0x10
    13f2:	8741                	srai	a4,a4,0x10
    13f4:	400237b7          	lui	a5,0x40023
    13f8:	40078793          	addi	a5,a5,1024 # 40023400 <_eusrstack+0x2001e400>
    13fc:	0742                	slli	a4,a4,0x10
    13fe:	8341                	srli	a4,a4,0x10
    1400:	b3ba                	sh	a4,34(a5)
    1402:	a021                	j	140a <USBFS_IRQHandler+0xb72>
    1404:	0001                	nop
    1406:	a011                	j	140a <USBFS_IRQHandler+0xb72>
    1408:	0001                	nop
    140a:	400237b7          	lui	a5,0x40023
    140e:	40078793          	addi	a5,a5,1024 # 40023400 <_eusrstack+0x2001e400>
    1412:	4709                	li	a4,2
    1414:	a3f8                	sb	a4,6(a5)
    1416:	a07d                	j	14c4 <USBFS_IRQHandler+0xc2c>
    1418:	feb44783          	lbu	a5,-21(s0)
    141c:	8b85                	andi	a5,a5,1
    141e:	cb85                	beqz	a5,144e <USBFS_IRQHandler+0xbb6>
    1420:	82018623          	sb	zero,-2004(gp) # 200001d4 <USBFS_DevConfig>
    1424:	820186a3          	sb	zero,-2003(gp) # 200001d5 <USBFS_DevAddr>
    1428:	82018723          	sb	zero,-2002(gp) # 200001d6 <USBFS_DevSleepStatus>
    142c:	820187a3          	sb	zero,-2001(gp) # 200001d7 <USBFS_DevEnumStatus>
    1430:	400237b7          	lui	a5,0x40023
    1434:	40078793          	addi	a5,a5,1024 # 40023400 <_eusrstack+0x2001e400>
    1438:	000781a3          	sb	zero,3(a5)
    143c:	efbfe0ef          	jal	ra,336 <USBFS_Device_Endp_Init>
    1440:	400237b7          	lui	a5,0x40023
    1444:	40078793          	addi	a5,a5,1024 # 40023400 <_eusrstack+0x2001e400>
    1448:	4705                	li	a4,1
    144a:	a3f8                	sb	a4,6(a5)
    144c:	a8a5                	j	14c4 <USBFS_IRQHandler+0xc2c>
    144e:	feb44783          	lbu	a5,-21(s0)
    1452:	8b91                	andi	a5,a5,4
    1454:	c3ad                	beqz	a5,14b6 <USBFS_IRQHandler+0xc1e>
    1456:	400237b7          	lui	a5,0x40023
    145a:	40078793          	addi	a5,a5,1024 # 40023400 <_eusrstack+0x2001e400>
    145e:	4711                	li	a4,4
    1460:	a3f8                	sb	a4,6(a5)
    1462:	4529                	li	a0,10
    1464:	1c1010ef          	jal	ra,2e24 <Delay_Us>
    1468:	400237b7          	lui	a5,0x40023
    146c:	40078793          	addi	a5,a5,1024 # 40023400 <_eusrstack+0x2001e400>
    1470:	33dc                	lbu	a5,5(a5)
    1472:	0ff7f793          	zext.b	a5,a5
    1476:	8b91                	andi	a5,a5,4
    1478:	c78d                	beqz	a5,14a2 <USBFS_IRQHandler+0xc0a>
    147a:	82e1c783          	lbu	a5,-2002(gp) # 200001d6 <USBFS_DevSleepStatus>
    147e:	0ff7f793          	zext.b	a5,a5
    1482:	0027e793          	ori	a5,a5,2
    1486:	0ff7f713          	zext.b	a4,a5
    148a:	82e18723          	sb	a4,-2002(gp) # 200001d6 <USBFS_DevSleepStatus>
    148e:	82e1c783          	lbu	a5,-2002(gp) # 200001d6 <USBFS_DevSleepStatus>
    1492:	0ff7f713          	zext.b	a4,a5
    1496:	478d                	li	a5,3
    1498:	02f71663          	bne	a4,a5,14c4 <USBFS_IRQHandler+0xc2c>
    149c:	02f000ef          	jal	ra,1cca <MCU_Sleep_Wakeup_Operate>
    14a0:	a015                	j	14c4 <USBFS_IRQHandler+0xc2c>
    14a2:	82e1c783          	lbu	a5,-2002(gp) # 200001d6 <USBFS_DevSleepStatus>
    14a6:	0ff7f793          	zext.b	a5,a5
    14aa:	9bf5                	andi	a5,a5,-3
    14ac:	0ff7f713          	zext.b	a4,a5
    14b0:	82e18723          	sb	a4,-2002(gp) # 200001d6 <USBFS_DevSleepStatus>
    14b4:	a801                	j	14c4 <USBFS_IRQHandler+0xc2c>
    14b6:	400237b7          	lui	a5,0x40023
    14ba:	40078793          	addi	a5,a5,1024 # 40023400 <_eusrstack+0x2001e400>
    14be:	feb44703          	lbu	a4,-21(s0)
    14c2:	a3f8                	sb	a4,6(a5)
    14c4:	0001                	nop
    14c6:	4472                	lw	s0,28(sp)
    14c8:	6105                	addi	sp,sp,32
    14ca:	30200073          	mret

000014ce <USBFS_Send_Resume>:
    14ce:	1141                	addi	sp,sp,-16
    14d0:	c606                	sw	ra,12(sp)
    14d2:	c422                	sw	s0,8(sp)
    14d4:	0800                	addi	s0,sp,16
    14d6:	2c4010ef          	jal	ra,279a <PWR_VDD_SupplyVoltage>
    14da:	87aa                	mv	a5,a0
    14dc:	eba5                	bnez	a5,154c <USBFS_Send_Resume+0x7e>
    14de:	400117b7          	lui	a5,0x40011
    14e2:	00020737          	lui	a4,0x20
    14e6:	0705                	addi	a4,a4,1 # 20001 <_data_lma+0x1b889>
    14e8:	d398                	sw	a4,32(a5)
    14ea:	400117b7          	lui	a5,0x40011
    14ee:	4fdc                	lw	a5,28(a5)
    14f0:	f007f713          	andi	a4,a5,-256
    14f4:	400117b7          	lui	a5,0x40011
    14f8:	08876713          	ori	a4,a4,136
    14fc:	cfd8                	sw	a4,28(a5)
    14fe:	400107b7          	lui	a5,0x40010
    1502:	4f9c                	lw	a5,24(a5)
    1504:	ff57f713          	andi	a4,a5,-11
    1508:	400107b7          	lui	a5,0x40010
    150c:	00276713          	ori	a4,a4,2
    1510:	cf98                	sw	a4,24(a5)
    1512:	4521                	li	a0,8
    1514:	193010ef          	jal	ra,2ea6 <Delay_Ms>
    1518:	400107b7          	lui	a5,0x40010
    151c:	4f9c                	lw	a5,24(a5)
    151e:	ff57f713          	andi	a4,a5,-11
    1522:	400107b7          	lui	a5,0x40010
    1526:	00876713          	ori	a4,a4,8
    152a:	cf98                	sw	a4,24(a5)
    152c:	400117b7          	lui	a5,0x40011
    1530:	4fdc                	lw	a5,28(a5)
    1532:	f007f713          	andi	a4,a5,-256
    1536:	400117b7          	lui	a5,0x40011
    153a:	08476713          	ori	a4,a4,132
    153e:	cfd8                	sw	a4,28(a5)
    1540:	400117b7          	lui	a5,0x40011
    1544:	6741                	lui	a4,0x10
    1546:	0709                	addi	a4,a4,2 # 10002 <_data_lma+0xb88a>
    1548:	d398                	sw	a4,32(a5)
    154a:	a0bd                	j	15b8 <USBFS_Send_Resume+0xea>
    154c:	400117b7          	lui	a5,0x40011
    1550:	00020737          	lui	a4,0x20
    1554:	0705                	addi	a4,a4,1 # 20001 <_data_lma+0x1b889>
    1556:	d398                	sw	a4,32(a5)
    1558:	400117b7          	lui	a5,0x40011
    155c:	4fdc                	lw	a5,28(a5)
    155e:	f007f713          	andi	a4,a5,-256
    1562:	400117b7          	lui	a5,0x40011
    1566:	08876713          	ori	a4,a4,136
    156a:	cfd8                	sw	a4,28(a5)
    156c:	400107b7          	lui	a5,0x40010
    1570:	4f9c                	lw	a5,24(a5)
    1572:	ff07f713          	andi	a4,a5,-16
    1576:	400107b7          	lui	a5,0x40010
    157a:	00376713          	ori	a4,a4,3
    157e:	cf98                	sw	a4,24(a5)
    1580:	4521                	li	a0,8
    1582:	125010ef          	jal	ra,2ea6 <Delay_Ms>
    1586:	400107b7          	lui	a5,0x40010
    158a:	4f9c                	lw	a5,24(a5)
    158c:	ff07f713          	andi	a4,a5,-16
    1590:	400107b7          	lui	a5,0x40010
    1594:	00c76713          	ori	a4,a4,12
    1598:	cf98                	sw	a4,24(a5)
    159a:	400117b7          	lui	a5,0x40011
    159e:	4fdc                	lw	a5,28(a5)
    15a0:	f007f713          	andi	a4,a5,-256
    15a4:	400117b7          	lui	a5,0x40011
    15a8:	08476713          	ori	a4,a4,132
    15ac:	cfd8                	sw	a4,28(a5)
    15ae:	400117b7          	lui	a5,0x40011
    15b2:	6741                	lui	a4,0x10
    15b4:	0709                	addi	a4,a4,2 # 10002 <_data_lma+0xb88a>
    15b6:	d398                	sw	a4,32(a5)
    15b8:	0001                	nop
    15ba:	40b2                	lw	ra,12(sp)
    15bc:	4422                	lw	s0,8(sp)
    15be:	0141                	addi	sp,sp,16
    15c0:	8082                	ret

000015c2 <main>:
    15c2:	1141                	addi	sp,sp,-16
    15c4:	c606                	sw	ra,12(sp)
    15c6:	c422                	sw	s0,8(sp)
    15c8:	0800                	addi	s0,sp,16
    15ca:	4505                	li	a0,1
    15cc:	70d000ef          	jal	ra,24d8 <NVIC_PriorityGroupConfig>
    15d0:	2a31                	jal	16ec <SystemCoreClockUpdate>
    15d2:	011010ef          	jal	ra,2de2 <Delay_Init>
    15d6:	67f1                	lui	a5,0x1c
    15d8:	20078513          	addi	a0,a5,512 # 1c200 <_data_lma+0x17a88>
    15dc:	14d010ef          	jal	ra,2f28 <USART_Printf_Init>
    15e0:	200007b7          	lui	a5,0x20000
    15e4:	1a87a783          	lw	a5,424(a5) # 200001a8 <SystemCoreClock>
    15e8:	85be                	mv	a1,a5
    15ea:	6791                	lui	a5,0x4
    15ec:	33078513          	addi	a0,a5,816 # 4330 <_read+0xe>
    15f0:	28d010ef          	jal	ra,307c <iprintf>
    15f4:	017000ef          	jal	ra,1e0a <DBGMCU_GetCHIPID>
    15f8:	87aa                	mv	a5,a0
    15fa:	85be                	mv	a1,a5
    15fc:	6791                	lui	a5,0x4
    15fe:	34078513          	addi	a0,a5,832 # 4340 <_read+0x1e>
    1602:	27b010ef          	jal	ra,307c <iprintf>
    1606:	2981                	jal	1a56 <KB_Scan_Init>
    1608:	29f9                	jal	1ae6 <KB_Sleep_Wakeup_Cfg>
    160a:	6791                	lui	a5,0x4
    160c:	35078513          	addi	a0,a5,848 # 4350 <_read+0x2e>
    1610:	3ab010ef          	jal	ra,31ba <puts>
    1614:	6789                	lui	a5,0x2
    1616:	8ca78713          	addi	a4,a5,-1846 # 18ca <btn_dot_callback>
    161a:	6789                	lui	a5,0x2
    161c:	a1278693          	addi	a3,a5,-1518 # 1a12 <btn_dot_read>
    1620:	4601                	li	a2,0
    1622:	45a9                	li	a1,10
    1624:	93018513          	addi	a0,gp,-1744 # 200002d8 <btn_dot>
    1628:	b13fe0ef          	jal	ra,13a <button_init>
    162c:	6789                	lui	a5,0x2
    162e:	96e78713          	addi	a4,a5,-1682 # 196e <btn_dash_callback>
    1632:	6789                	lui	a5,0x2
    1634:	a3478693          	addi	a3,a5,-1484 # 1a34 <btn_dash_read>
    1638:	4601                	li	a2,0
    163a:	45a9                	li	a1,10
    163c:	94c18513          	addi	a0,gp,-1716 # 200002f4 <btn_dash>
    1640:	afbfe0ef          	jal	ra,13a <button_init>
    1644:	93018513          	addi	a0,gp,-1744 # 200002d8 <btn_dot>
    1648:	b71fe0ef          	jal	ra,1b8 <button_enable>
    164c:	94c18513          	addi	a0,gp,-1716 # 200002f4 <btn_dash>
    1650:	b69fe0ef          	jal	ra,1b8 <button_enable>
    1654:	200007b7          	lui	a5,0x20000
    1658:	1a87a703          	lw	a4,424(a5) # 200001a8 <SystemCoreClock>
    165c:	6789                	lui	a5,0x2
    165e:	71078793          	addi	a5,a5,1808 # 2710 <PWR_EnterSTOPMode+0xde>
    1662:	02f757b3          	divu	a5,a4,a5
    1666:	07c2                	slli	a5,a5,0x10
    1668:	83c1                	srli	a5,a5,0x10
    166a:	17fd                	addi	a5,a5,-1
    166c:	07c2                	slli	a5,a5,0x10
    166e:	83c1                	srli	a5,a5,0x10
    1670:	85be                	mv	a1,a5
    1672:	4505                	li	a0,1
    1674:	2a89                	jal	17c6 <TIM3_Init>
    1676:	6791                	lui	a5,0x4
    1678:	36478513          	addi	a0,a5,868 # 4364 <_read+0x42>
    167c:	33f010ef          	jal	ra,31ba <puts>
    1680:	c95fe0ef          	jal	ra,314 <USBFS_RCC_Init>
    1684:	116010ef          	jal	ra,279a <PWR_VDD_SupplyVoltage>
    1688:	87aa                	mv	a5,a0
    168a:	85be                	mv	a1,a5
    168c:	4505                	li	a0,1
    168e:	da7fe0ef          	jal	ra,434 <USBFS_Device_Init>
    1692:	2bd5                	jal	1c86 <USB_Sleep_Wakeup_CFG>
    1694:	82f1c783          	lbu	a5,-2001(gp) # 200001d7 <USBFS_DevEnumStatus>
    1698:	0ff7f793          	zext.b	a5,a5
    169c:	dfe5                	beqz	a5,1694 <main+0xd2>
    169e:	2391                	jal	1be2 <KB_Scan_Handle>
    16a0:	bfd5                	j	1694 <main+0xd2>

000016a2 <SystemInit>:
    16a2:	1141                	addi	sp,sp,-16
    16a4:	c606                	sw	ra,12(sp)
    16a6:	c422                	sw	s0,8(sp)
    16a8:	0800                	addi	s0,sp,16
    16aa:	400217b7          	lui	a5,0x40021
    16ae:	4398                	lw	a4,0(a5)
    16b0:	400217b7          	lui	a5,0x40021
    16b4:	00176713          	ori	a4,a4,1
    16b8:	c398                	sw	a4,0(a5)
    16ba:	400217b7          	lui	a5,0x40021
    16be:	43d8                	lw	a4,4(a5)
    16c0:	400217b7          	lui	a5,0x40021
    16c4:	05076713          	ori	a4,a4,80
    16c8:	c3d8                	sw	a4,4(a5)
    16ca:	400217b7          	lui	a5,0x40021
    16ce:	43d4                	lw	a3,4(a5)
    16d0:	400217b7          	lui	a5,0x40021
    16d4:	f9000737          	lui	a4,0xf9000
    16d8:	f5f70713          	addi	a4,a4,-161 # f8ffff5f <_eusrstack+0xd8ffaf5f>
    16dc:	8f75                	and	a4,a4,a3
    16de:	c3d8                	sw	a4,4(a5)
    16e0:	2069                	jal	176a <SetSysClock>
    16e2:	0001                	nop
    16e4:	40b2                	lw	ra,12(sp)
    16e6:	4422                	lw	s0,8(sp)
    16e8:	0141                	addi	sp,sp,16
    16ea:	8082                	ret

000016ec <SystemCoreClockUpdate>:
    16ec:	1101                	addi	sp,sp,-32
    16ee:	ce22                	sw	s0,28(sp)
    16f0:	1000                	addi	s0,sp,32
    16f2:	fe042623          	sw	zero,-20(s0)
    16f6:	200007b7          	lui	a5,0x20000
    16fa:	02dc7737          	lui	a4,0x2dc7
    16fe:	c0070713          	addi	a4,a4,-1024 # 2dc6c00 <_data_lma+0x2dc2488>
    1702:	1ae7a423          	sw	a4,424(a5) # 200001a8 <SystemCoreClock>
    1706:	400217b7          	lui	a5,0x40021
    170a:	43dc                	lw	a5,4(a5)
    170c:	8391                	srli	a5,a5,0x4
    170e:	8bbd                	andi	a5,a5,15
    1710:	20000737          	lui	a4,0x20000
    1714:	00070713          	mv	a4,a4
    1718:	97ba                	add	a5,a5,a4
    171a:	239c                	lbu	a5,0(a5)
    171c:	0ff7f793          	zext.b	a5,a5
    1720:	fef42623          	sw	a5,-20(s0)
    1724:	400217b7          	lui	a5,0x40021
    1728:	43dc                	lw	a5,4(a5)
    172a:	0807f793          	andi	a5,a5,128
    172e:	ef91                	bnez	a5,174a <SystemCoreClockUpdate+0x5e>
    1730:	200007b7          	lui	a5,0x20000
    1734:	1a87a703          	lw	a4,424(a5) # 200001a8 <SystemCoreClock>
    1738:	fec42783          	lw	a5,-20(s0)
    173c:	02f75733          	divu	a4,a4,a5
    1740:	200007b7          	lui	a5,0x20000
    1744:	1ae7a423          	sw	a4,424(a5) # 200001a8 <SystemCoreClock>
    1748:	a829                	j	1762 <SystemCoreClockUpdate+0x76>
    174a:	200007b7          	lui	a5,0x20000
    174e:	1a87a703          	lw	a4,424(a5) # 200001a8 <SystemCoreClock>
    1752:	fec42783          	lw	a5,-20(s0)
    1756:	00f75733          	srl	a4,a4,a5
    175a:	200007b7          	lui	a5,0x20000
    175e:	1ae7a423          	sw	a4,424(a5) # 200001a8 <SystemCoreClock>
    1762:	0001                	nop
    1764:	4472                	lw	s0,28(sp)
    1766:	6105                	addi	sp,sp,32
    1768:	8082                	ret

0000176a <SetSysClock>:
    176a:	1141                	addi	sp,sp,-16
    176c:	c606                	sw	ra,12(sp)
    176e:	c422                	sw	s0,8(sp)
    1770:	0800                	addi	s0,sp,16
    1772:	2031                	jal	177e <SetSysClockTo48_HSI>
    1774:	0001                	nop
    1776:	40b2                	lw	ra,12(sp)
    1778:	4422                	lw	s0,8(sp)
    177a:	0141                	addi	sp,sp,16
    177c:	8082                	ret

0000177e <SetSysClockTo48_HSI>:
    177e:	1141                	addi	sp,sp,-16
    1780:	c622                	sw	s0,12(sp)
    1782:	0800                	addi	s0,sp,16
    1784:	400227b7          	lui	a5,0x40022
    1788:	4398                	lw	a4,0(a5)
    178a:	400227b7          	lui	a5,0x40022
    178e:	9b71                	andi	a4,a4,-4
    1790:	c398                	sw	a4,0(a5)
    1792:	400227b7          	lui	a5,0x40022
    1796:	4398                	lw	a4,0(a5)
    1798:	400227b7          	lui	a5,0x40022
    179c:	00276713          	ori	a4,a4,2
    17a0:	c398                	sw	a4,0(a5)
    17a2:	400217b7          	lui	a5,0x40021
    17a6:	43d8                	lw	a4,4(a5)
    17a8:	400217b7          	lui	a5,0x40021
    17ac:	f0f77713          	andi	a4,a4,-241
    17b0:	c3d8                	sw	a4,4(a5)
    17b2:	40021737          	lui	a4,0x40021
    17b6:	400217b7          	lui	a5,0x40021
    17ba:	4358                	lw	a4,4(a4)
    17bc:	c3d8                	sw	a4,4(a5)
    17be:	0001                	nop
    17c0:	4432                	lw	s0,12(sp)
    17c2:	0141                	addi	sp,sp,16
    17c4:	8082                	ret

000017c6 <TIM3_Init>:
    17c6:	7139                	addi	sp,sp,-64
    17c8:	de06                	sw	ra,60(sp)
    17ca:	dc22                	sw	s0,56(sp)
    17cc:	0080                	addi	s0,sp,64
    17ce:	87aa                	mv	a5,a0
    17d0:	872e                	mv	a4,a1
    17d2:	fcf41723          	sh	a5,-50(s0)
    17d6:	87ba                	mv	a5,a4
    17d8:	fcf41623          	sh	a5,-52(s0)
    17dc:	fe042223          	sw	zero,-28(s0)
    17e0:	fe042423          	sw	zero,-24(s0)
    17e4:	fe041623          	sh	zero,-20(s0)
    17e8:	fc042e23          	sw	zero,-36(s0)
    17ec:	fe042023          	sw	zero,-32(s0)
    17f0:	4585                	li	a1,1
    17f2:	4509                	li	a0,2
    17f4:	118010ef          	jal	ra,290c <RCC_APB1PeriphClockCmd>
    17f8:	fce45783          	lhu	a5,-50(s0)
    17fc:	fef41423          	sh	a5,-24(s0)
    1800:	fcc45783          	lhu	a5,-52(s0)
    1804:	fef41223          	sh	a5,-28(s0)
    1808:	fe041523          	sh	zero,-22(s0)
    180c:	fe041323          	sh	zero,-26(s0)
    1810:	fe440793          	addi	a5,s0,-28
    1814:	85be                	mv	a1,a5
    1816:	400007b7          	lui	a5,0x40000
    181a:	40078513          	addi	a0,a5,1024 # 40000400 <_eusrstack+0x1fffb400>
    181e:	134010ef          	jal	ra,2952 <TIM_TimeBaseInit>
    1822:	4605                	li	a2,1
    1824:	4585                	li	a1,1
    1826:	400007b7          	lui	a5,0x40000
    182a:	40078513          	addi	a0,a5,1024 # 40000400 <_eusrstack+0x1fffb400>
    182e:	240010ef          	jal	ra,2a6e <TIM_ITConfig>
    1832:	03600793          	li	a5,54
    1836:	fcf40e23          	sb	a5,-36(s0)
    183a:	4785                	li	a5,1
    183c:	fcf40ea3          	sb	a5,-35(s0)
    1840:	4789                	li	a5,2
    1842:	fcf40f23          	sb	a5,-34(s0)
    1846:	4785                	li	a5,1
    1848:	fef42023          	sw	a5,-32(s0)
    184c:	fdc40793          	addi	a5,s0,-36
    1850:	853e                	mv	a0,a5
    1852:	4a1000ef          	jal	ra,24f2 <NVIC_Init>
    1856:	4585                	li	a1,1
    1858:	400007b7          	lui	a5,0x40000
    185c:	40078513          	addi	a0,a5,1024 # 40000400 <_eusrstack+0x1fffb400>
    1860:	1be010ef          	jal	ra,2a1e <TIM_Cmd>
    1864:	0001                	nop
    1866:	50f2                	lw	ra,60(sp)
    1868:	5462                	lw	s0,56(sp)
    186a:	6121                	addi	sp,sp,64
    186c:	8082                	ret

0000186e <TIM3_IRQHandler>:
    186e:	1141                	addi	sp,sp,-16
    1870:	c622                	sw	s0,12(sp)
    1872:	0800                	addi	s0,sp,16
    1874:	4585                	li	a1,1
    1876:	400007b7          	lui	a5,0x40000
    187a:	40078513          	addi	a0,a5,1024 # 40000400 <_eusrstack+0x1fffb400>
    187e:	256010ef          	jal	ra,2ad4 <TIM_GetITStatus>
    1882:	87aa                	mv	a5,a0
    1884:	cf95                	beqz	a5,18c0 <TIM3_IRQHandler+0x52>
    1886:	4585                	li	a1,1
    1888:	400007b7          	lui	a5,0x40000
    188c:	40078513          	addi	a0,a5,1024 # 40000400 <_eusrstack+0x1fffb400>
    1890:	2ac010ef          	jal	ra,2b3c <TIM_ClearITPendingBit>
    1894:	84c1a783          	lw	a5,-1972(gp) # 200001f4 <tim3_millis>
    1898:	00178713          	addi	a4,a5,1
    189c:	84e1a623          	sw	a4,-1972(gp) # 200001f4 <tim3_millis>
    18a0:	96818793          	addi	a5,gp,-1688 # 20000310 <my_morse>
    18a4:	4b98                	lw	a4,16(a5)
    18a6:	6785                	lui	a5,0x1
    18a8:	38778793          	addi	a5,a5,903 # 1387 <USBFS_IRQHandler+0xaef>
    18ac:	00e7ea63          	bltu	a5,a4,18c0 <TIM3_IRQHandler+0x52>
    18b0:	96818793          	addi	a5,gp,-1688 # 20000310 <my_morse>
    18b4:	4b9c                	lw	a5,16(a5)
    18b6:	00178713          	addi	a4,a5,1
    18ba:	96818793          	addi	a5,gp,-1688 # 20000310 <my_morse>
    18be:	cb98                	sw	a4,16(a5)
    18c0:	0001                	nop
    18c2:	4432                	lw	s0,12(sp)
    18c4:	0141                	addi	sp,sp,16
    18c6:	30200073          	mret

000018ca <btn_dot_callback>:
    18ca:	7179                	addi	sp,sp,-48
    18cc:	d606                	sw	ra,44(sp)
    18ce:	d422                	sw	s0,40(sp)
    18d0:	1800                	addi	s0,sp,48
    18d2:	fca42e23          	sw	a0,-36(s0)
    18d6:	fdc42783          	lw	a5,-36(s0)
    18da:	fef42623          	sw	a5,-20(s0)
    18de:	fec42783          	lw	a5,-20(s0)
    18e2:	23bc                	lbu	a5,2(a5)
    18e4:	4709                	li	a4,2
    18e6:	06e78a63          	beq	a5,a4,195a <btn_dot_callback+0x90>
    18ea:	4709                	li	a4,2
    18ec:	06f74963          	blt	a4,a5,195e <btn_dot_callback+0x94>
    18f0:	c789                	beqz	a5,18fa <btn_dot_callback+0x30>
    18f2:	4705                	li	a4,1
    18f4:	06e78763          	beq	a5,a4,1962 <btn_dot_callback+0x98>
    18f8:	a09d                	j	195e <btn_dot_callback+0x94>
    18fa:	6585                	lui	a1,0x1
    18fc:	400117b7          	lui	a5,0x40011
    1900:	c0078513          	addi	a0,a5,-1024 # 40010c00 <_eusrstack+0x2000bc00>
    1904:	313000ef          	jal	ra,2416 <GPIO_ResetBits>
    1908:	96818793          	addi	a5,gp,-1688 # 20000310 <my_morse>
    190c:	37b8                	lbu	a4,11(a5)
    190e:	479d                	li	a5,7
    1910:	02e7ec63          	bltu	a5,a4,1948 <btn_dot_callback+0x7e>
    1914:	96818793          	addi	a5,gp,-1688 # 20000310 <my_morse>
    1918:	37bc                	lbu	a5,11(a5)
    191a:	00178713          	addi	a4,a5,1
    191e:	0ff77693          	zext.b	a3,a4
    1922:	96818713          	addi	a4,gp,-1688 # 20000310 <my_morse>
    1926:	b734                	sb	a3,11(a4)
    1928:	873e                	mv	a4,a5
    192a:	96818793          	addi	a5,gp,-1688 # 20000310 <my_morse>
    192e:	97ba                	add	a5,a5,a4
    1930:	02e00713          	li	a4,46
    1934:	a398                	sb	a4,0(a5)
    1936:	96818793          	addi	a5,gp,-1688 # 20000310 <my_morse>
    193a:	37bc                	lbu	a5,11(a5)
    193c:	873e                	mv	a4,a5
    193e:	96818793          	addi	a5,gp,-1688 # 20000310 <my_morse>
    1942:	97ba                	add	a5,a5,a4
    1944:	00078023          	sb	zero,0(a5)
    1948:	96818793          	addi	a5,gp,-1688 # 20000310 <my_morse>
    194c:	00078623          	sb	zero,12(a5)
    1950:	96818793          	addi	a5,gp,-1688 # 20000310 <my_morse>
    1954:	0007a823          	sw	zero,16(a5)
    1958:	a031                	j	1964 <btn_dot_callback+0x9a>
    195a:	0001                	nop
    195c:	a021                	j	1964 <btn_dot_callback+0x9a>
    195e:	0001                	nop
    1960:	a011                	j	1964 <btn_dot_callback+0x9a>
    1962:	0001                	nop
    1964:	0001                	nop
    1966:	50b2                	lw	ra,44(sp)
    1968:	5422                	lw	s0,40(sp)
    196a:	6145                	addi	sp,sp,48
    196c:	8082                	ret

0000196e <btn_dash_callback>:
    196e:	7179                	addi	sp,sp,-48
    1970:	d606                	sw	ra,44(sp)
    1972:	d422                	sw	s0,40(sp)
    1974:	1800                	addi	s0,sp,48
    1976:	fca42e23          	sw	a0,-36(s0)
    197a:	fdc42783          	lw	a5,-36(s0)
    197e:	fef42623          	sw	a5,-20(s0)
    1982:	fec42783          	lw	a5,-20(s0)
    1986:	23bc                	lbu	a5,2(a5)
    1988:	4709                	li	a4,2
    198a:	06e78a63          	beq	a5,a4,19fe <btn_dash_callback+0x90>
    198e:	4709                	li	a4,2
    1990:	06f74963          	blt	a4,a5,1a02 <btn_dash_callback+0x94>
    1994:	c789                	beqz	a5,199e <btn_dash_callback+0x30>
    1996:	4705                	li	a4,1
    1998:	06e78763          	beq	a5,a4,1a06 <btn_dash_callback+0x98>
    199c:	a09d                	j	1a02 <btn_dash_callback+0x94>
    199e:	6585                	lui	a1,0x1
    19a0:	400117b7          	lui	a5,0x40011
    19a4:	c0078513          	addi	a0,a5,-1024 # 40010c00 <_eusrstack+0x2000bc00>
    19a8:	23b000ef          	jal	ra,23e2 <GPIO_SetBits>
    19ac:	96818793          	addi	a5,gp,-1688 # 20000310 <my_morse>
    19b0:	37b8                	lbu	a4,11(a5)
    19b2:	479d                	li	a5,7
    19b4:	02e7ec63          	bltu	a5,a4,19ec <btn_dash_callback+0x7e>
    19b8:	96818793          	addi	a5,gp,-1688 # 20000310 <my_morse>
    19bc:	37bc                	lbu	a5,11(a5)
    19be:	00178713          	addi	a4,a5,1
    19c2:	0ff77693          	zext.b	a3,a4
    19c6:	96818713          	addi	a4,gp,-1688 # 20000310 <my_morse>
    19ca:	b734                	sb	a3,11(a4)
    19cc:	873e                	mv	a4,a5
    19ce:	96818793          	addi	a5,gp,-1688 # 20000310 <my_morse>
    19d2:	97ba                	add	a5,a5,a4
    19d4:	02d00713          	li	a4,45
    19d8:	a398                	sb	a4,0(a5)
    19da:	96818793          	addi	a5,gp,-1688 # 20000310 <my_morse>
    19de:	37bc                	lbu	a5,11(a5)
    19e0:	873e                	mv	a4,a5
    19e2:	96818793          	addi	a5,gp,-1688 # 20000310 <my_morse>
    19e6:	97ba                	add	a5,a5,a4
    19e8:	00078023          	sb	zero,0(a5)
    19ec:	96818793          	addi	a5,gp,-1688 # 20000310 <my_morse>
    19f0:	00078623          	sb	zero,12(a5)
    19f4:	96818793          	addi	a5,gp,-1688 # 20000310 <my_morse>
    19f8:	0007a823          	sw	zero,16(a5)
    19fc:	a031                	j	1a08 <btn_dash_callback+0x9a>
    19fe:	0001                	nop
    1a00:	a021                	j	1a08 <btn_dash_callback+0x9a>
    1a02:	0001                	nop
    1a04:	a011                	j	1a08 <btn_dash_callback+0x9a>
    1a06:	0001                	nop
    1a08:	0001                	nop
    1a0a:	50b2                	lw	ra,44(sp)
    1a0c:	5422                	lw	s0,40(sp)
    1a0e:	6145                	addi	sp,sp,48
    1a10:	8082                	ret

00001a12 <btn_dot_read>:
    1a12:	1141                	addi	sp,sp,-16
    1a14:	c606                	sw	ra,12(sp)
    1a16:	c422                	sw	s0,8(sp)
    1a18:	0800                	addi	s0,sp,16
    1a1a:	4585                	li	a1,1
    1a1c:	400117b7          	lui	a5,0x40011
    1a20:	c0078513          	addi	a0,a5,-1024 # 40010c00 <_eusrstack+0x2000bc00>
    1a24:	187000ef          	jal	ra,23aa <GPIO_ReadInputDataBit>
    1a28:	87aa                	mv	a5,a0
    1a2a:	853e                	mv	a0,a5
    1a2c:	40b2                	lw	ra,12(sp)
    1a2e:	4422                	lw	s0,8(sp)
    1a30:	0141                	addi	sp,sp,16
    1a32:	8082                	ret

00001a34 <btn_dash_read>:
    1a34:	1141                	addi	sp,sp,-16
    1a36:	c606                	sw	ra,12(sp)
    1a38:	c422                	sw	s0,8(sp)
    1a3a:	0800                	addi	s0,sp,16
    1a3c:	4589                	li	a1,2
    1a3e:	400117b7          	lui	a5,0x40011
    1a42:	c0078513          	addi	a0,a5,-1024 # 40010c00 <_eusrstack+0x2000bc00>
    1a46:	165000ef          	jal	ra,23aa <GPIO_ReadInputDataBit>
    1a4a:	87aa                	mv	a5,a0
    1a4c:	853e                	mv	a0,a5
    1a4e:	40b2                	lw	ra,12(sp)
    1a50:	4422                	lw	s0,8(sp)
    1a52:	0141                	addi	sp,sp,16
    1a54:	8082                	ret

00001a56 <KB_Scan_Init>:
    1a56:	1101                	addi	sp,sp,-32
    1a58:	ce06                	sw	ra,28(sp)
    1a5a:	cc22                	sw	s0,24(sp)
    1a5c:	1000                	addi	s0,sp,32
    1a5e:	fe042223          	sw	zero,-28(s0)
    1a62:	fe042423          	sw	zero,-24(s0)
    1a66:	fe042623          	sw	zero,-20(s0)
    1a6a:	4585                	li	a1,1
    1a6c:	4521                	li	a0,8
    1a6e:	659000ef          	jal	ra,28c6 <RCC_APB2PeriphClockCmd>
    1a72:	478d                	li	a5,3
    1a74:	fef42223          	sw	a5,-28(s0)
    1a78:	04800793          	li	a5,72
    1a7c:	fef42623          	sw	a5,-20(s0)
    1a80:	4785                	li	a5,1
    1a82:	fef42423          	sw	a5,-24(s0)
    1a86:	fe440793          	addi	a5,s0,-28
    1a8a:	85be                	mv	a1,a5
    1a8c:	400117b7          	lui	a5,0x40011
    1a90:	c0078513          	addi	a0,a5,-1024 # 40010c00 <_eusrstack+0x2000bc00>
    1a94:	2b99                	jal	1fea <GPIO_Init>
    1a96:	6785                	lui	a5,0x1
    1a98:	fef42223          	sw	a5,-28(s0)
    1a9c:	47c1                	li	a5,16
    1a9e:	fef42623          	sw	a5,-20(s0)
    1aa2:	4785                	li	a5,1
    1aa4:	fef42423          	sw	a5,-24(s0)
    1aa8:	fe440793          	addi	a5,s0,-28
    1aac:	85be                	mv	a1,a5
    1aae:	400117b7          	lui	a5,0x40011
    1ab2:	c0078513          	addi	a0,a5,-1024 # 40010c00 <_eusrstack+0x2000bc00>
    1ab6:	2b15                	jal	1fea <GPIO_Init>
    1ab8:	96818793          	addi	a5,gp,-1688 # 20000310 <my_morse>
    1abc:	00078023          	sb	zero,0(a5)
    1ac0:	96818793          	addi	a5,gp,-1688 # 20000310 <my_morse>
    1ac4:	000785a3          	sb	zero,11(a5)
    1ac8:	96818793          	addi	a5,gp,-1688 # 20000310 <my_morse>
    1acc:	4705                	li	a4,1
    1ace:	a7d8                	sb	a4,12(a5)
    1ad0:	96818793          	addi	a5,gp,-1688 # 20000310 <my_morse>
    1ad4:	6705                	lui	a4,0x1
    1ad6:	38870713          	addi	a4,a4,904 # 1388 <USBFS_IRQHandler+0xaf0>
    1ada:	cb98                	sw	a4,16(a5)
    1adc:	0001                	nop
    1ade:	40f2                	lw	ra,28(sp)
    1ae0:	4462                	lw	s0,24(sp)
    1ae2:	6105                	addi	sp,sp,32
    1ae4:	8082                	ret

00001ae6 <KB_Sleep_Wakeup_Cfg>:
    1ae6:	1101                	addi	sp,sp,-32
    1ae8:	ce06                	sw	ra,28(sp)
    1aea:	cc22                	sw	s0,24(sp)
    1aec:	1000                	addi	s0,sp,32
    1aee:	fe042023          	sw	zero,-32(s0)
    1af2:	fe042223          	sw	zero,-28(s0)
    1af6:	fe042423          	sw	zero,-24(s0)
    1afa:	fe042623          	sw	zero,-20(s0)
    1afe:	4585                	li	a1,1
    1b00:	4505                	li	a0,1
    1b02:	5c5000ef          	jal	ra,28c6 <RCC_APB2PeriphClockCmd>
    1b06:	4581                	li	a1,0
    1b08:	4505                	li	a0,1
    1b0a:	12d000ef          	jal	ra,2436 <GPIO_EXTILineConfig>
    1b0e:	4785                	li	a5,1
    1b10:	fef42023          	sw	a5,-32(s0)
    1b14:	4791                	li	a5,4
    1b16:	fef42223          	sw	a5,-28(s0)
    1b1a:	47b1                	li	a5,12
    1b1c:	fef42423          	sw	a5,-24(s0)
    1b20:	4785                	li	a5,1
    1b22:	fef42623          	sw	a5,-20(s0)
    1b26:	fe040793          	addi	a5,s0,-32
    1b2a:	853e                	mv	a0,a5
    1b2c:	2cdd                	jal	1e22 <EXTI_Init>
    1b2e:	4585                	li	a1,1
    1b30:	4505                	li	a0,1
    1b32:	105000ef          	jal	ra,2436 <GPIO_EXTILineConfig>
    1b36:	4789                	li	a5,2
    1b38:	fef42023          	sw	a5,-32(s0)
    1b3c:	4791                	li	a5,4
    1b3e:	fef42223          	sw	a5,-28(s0)
    1b42:	47b1                	li	a5,12
    1b44:	fef42423          	sw	a5,-24(s0)
    1b48:	4785                	li	a5,1
    1b4a:	fef42623          	sw	a5,-20(s0)
    1b4e:	fe040793          	addi	a5,s0,-32
    1b52:	853e                	mv	a0,a5
    1b54:	24f9                	jal	1e22 <EXTI_Init>
    1b56:	400107b7          	lui	a5,0x40010
    1b5a:	40078793          	addi	a5,a5,1024 # 40010400 <_eusrstack+0x2000b400>
    1b5e:	4398                	lw	a4,0(a5)
    1b60:	400107b7          	lui	a5,0x40010
    1b64:	40078793          	addi	a5,a5,1024 # 40010400 <_eusrstack+0x2000b400>
    1b68:	00376713          	ori	a4,a4,3
    1b6c:	c398                	sw	a4,0(a5)
    1b6e:	0001                	nop
    1b70:	40f2                	lw	ra,28(sp)
    1b72:	4462                	lw	s0,24(sp)
    1b74:	6105                	addi	sp,sp,32
    1b76:	8082                	ret

00001b78 <morse_to_char>:
    1b78:	7179                	addi	sp,sp,-48
    1b7a:	d606                	sw	ra,44(sp)
    1b7c:	d422                	sw	s0,40(sp)
    1b7e:	1800                	addi	s0,sp,48
    1b80:	fca42e23          	sw	a0,-36(s0)
    1b84:	fe042623          	sw	zero,-20(s0)
    1b88:	a089                	j	1bca <morse_to_char+0x52>
    1b8a:	200007b7          	lui	a5,0x20000
    1b8e:	01078713          	addi	a4,a5,16 # 20000010 <morse_dict>
    1b92:	fec42783          	lw	a5,-20(s0)
    1b96:	078e                	slli	a5,a5,0x3
    1b98:	97ba                	add	a5,a5,a4
    1b9a:	439c                	lw	a5,0(a5)
    1b9c:	85be                	mv	a1,a5
    1b9e:	fdc42503          	lw	a0,-36(s0)
    1ba2:	d74fe0ef          	jal	ra,116 <strcmp>
    1ba6:	87aa                	mv	a5,a0
    1ba8:	ef81                	bnez	a5,1bc0 <morse_to_char+0x48>
    1baa:	200007b7          	lui	a5,0x20000
    1bae:	01078713          	addi	a4,a5,16 # 20000010 <morse_dict>
    1bb2:	fec42783          	lw	a5,-20(s0)
    1bb6:	078e                	slli	a5,a5,0x3
    1bb8:	97ba                	add	a5,a5,a4
    1bba:	00478783          	lb	a5,4(a5)
    1bbe:	a829                	j	1bd8 <morse_to_char+0x60>
    1bc0:	fec42783          	lw	a5,-20(s0)
    1bc4:	0785                	addi	a5,a5,1
    1bc6:	fef42623          	sw	a5,-20(s0)
    1bca:	fec42703          	lw	a4,-20(s0)
    1bce:	02400793          	li	a5,36
    1bd2:	fae7fce3          	bgeu	a5,a4,1b8a <morse_to_char+0x12>
    1bd6:	4781                	li	a5,0
    1bd8:	853e                	mv	a0,a5
    1bda:	50b2                	lw	ra,44(sp)
    1bdc:	5422                	lw	s0,40(sp)
    1bde:	6145                	addi	sp,sp,48
    1be0:	8082                	ret

00001be2 <KB_Scan_Handle>:
    1be2:	1141                	addi	sp,sp,-16
    1be4:	c606                	sw	ra,12(sp)
    1be6:	c422                	sw	s0,8(sp)
    1be8:	0800                	addi	s0,sp,16
    1bea:	84c1a703          	lw	a4,-1972(gp) # 200001f4 <tim3_millis>
    1bee:	47a9                	li	a5,10
    1bf0:	02f777b3          	remu	a5,a4,a5
    1bf4:	eb89                	bnez	a5,1c06 <KB_Scan_Handle+0x24>
    1bf6:	93018513          	addi	a0,gp,-1744 # 200002d8 <btn_dot>
    1bfa:	dd8fe0ef          	jal	ra,1d2 <button_timer_polling>
    1bfe:	94c18513          	addi	a0,gp,-1716 # 200002f4 <btn_dash>
    1c02:	dd0fe0ef          	jal	ra,1d2 <button_timer_polling>
    1c06:	96818793          	addi	a5,gp,-1688 # 20000310 <my_morse>
    1c0a:	27dc                	lbu	a5,12(a5)
    1c0c:	eba5                	bnez	a5,1c7c <KB_Scan_Handle+0x9a>
    1c0e:	96818793          	addi	a5,gp,-1688 # 20000310 <my_morse>
    1c12:	4b98                	lw	a4,16(a5)
    1c14:	70800793          	li	a5,1800
    1c18:	06e7f263          	bgeu	a5,a4,1c7c <KB_Scan_Handle+0x9a>
    1c1c:	96818513          	addi	a0,gp,-1688 # 20000310 <my_morse>
    1c20:	3fa1                	jal	1b78 <morse_to_char>
    1c22:	87aa                	mv	a5,a0
    1c24:	0ff7f713          	zext.b	a4,a5
    1c28:	84018793          	addi	a5,gp,-1984 # 200001e8 <KB_Data_Pack>
    1c2c:	a3b8                	sb	a4,2(a5)
    1c2e:	4685                	li	a3,1
    1c30:	4621                	li	a2,8
    1c32:	84018593          	addi	a1,gp,-1984 # 200001e8 <KB_Data_Pack>
    1c36:	4505                	li	a0,1
    1c38:	91ffe0ef          	jal	ra,556 <USBFS_Endp_DataUp>
    1c3c:	96818793          	addi	a5,gp,-1688 # 20000310 <my_morse>
    1c40:	00078023          	sb	zero,0(a5)
    1c44:	96818793          	addi	a5,gp,-1688 # 20000310 <my_morse>
    1c48:	000785a3          	sb	zero,11(a5)
    1c4c:	96818793          	addi	a5,gp,-1688 # 20000310 <my_morse>
    1c50:	4705                	li	a4,1
    1c52:	a7d8                	sb	a4,12(a5)
    1c54:	96818793          	addi	a5,gp,-1688 # 20000310 <my_morse>
    1c58:	6705                	lui	a4,0x1
    1c5a:	38870713          	addi	a4,a4,904 # 1388 <USBFS_IRQHandler+0xaf0>
    1c5e:	cb98                	sw	a4,16(a5)
    1c60:	4529                	li	a0,10
    1c62:	244010ef          	jal	ra,2ea6 <Delay_Ms>
    1c66:	84018793          	addi	a5,gp,-1984 # 200001e8 <KB_Data_Pack>
    1c6a:	00078123          	sb	zero,2(a5)
    1c6e:	4685                	li	a3,1
    1c70:	4621                	li	a2,8
    1c72:	84018593          	addi	a1,gp,-1984 # 200001e8 <KB_Data_Pack>
    1c76:	4505                	li	a0,1
    1c78:	8dffe0ef          	jal	ra,556 <USBFS_Endp_DataUp>
    1c7c:	0001                	nop
    1c7e:	40b2                	lw	ra,12(sp)
    1c80:	4422                	lw	s0,8(sp)
    1c82:	0141                	addi	sp,sp,16
    1c84:	8082                	ret

00001c86 <USB_Sleep_Wakeup_CFG>:
    1c86:	1101                	addi	sp,sp,-32
    1c88:	ce06                	sw	ra,28(sp)
    1c8a:	cc22                	sw	s0,24(sp)
    1c8c:	1000                	addi	s0,sp,32
    1c8e:	fe042023          	sw	zero,-32(s0)
    1c92:	fe042223          	sw	zero,-28(s0)
    1c96:	fe042423          	sw	zero,-24(s0)
    1c9a:	fe042623          	sw	zero,-20(s0)
    1c9e:	100007b7          	lui	a5,0x10000
    1ca2:	fef42023          	sw	a5,-32(s0)
    1ca6:	4791                	li	a5,4
    1ca8:	fef42223          	sw	a5,-28(s0)
    1cac:	47a1                	li	a5,8
    1cae:	fef42423          	sw	a5,-24(s0)
    1cb2:	4785                	li	a5,1
    1cb4:	fef42623          	sw	a5,-20(s0)
    1cb8:	fe040793          	addi	a5,s0,-32
    1cbc:	853e                	mv	a0,a5
    1cbe:	2295                	jal	1e22 <EXTI_Init>
    1cc0:	0001                	nop
    1cc2:	40f2                	lw	ra,28(sp)
    1cc4:	4462                	lw	s0,24(sp)
    1cc6:	6105                	addi	sp,sp,32
    1cc8:	8082                	ret

00001cca <MCU_Sleep_Wakeup_Operate>:
    1cca:	1141                	addi	sp,sp,-16
    1ccc:	c606                	sw	ra,12(sp)
    1cce:	c422                	sw	s0,8(sp)
    1cd0:	0800                	addi	s0,sp,16
    1cd2:	6791                	lui	a5,0x4
    1cd4:	46078513          	addi	a0,a5,1120 # 4460 <_read+0x13e>
    1cd8:	4e2010ef          	jal	ra,31ba <puts>
    1cdc:	08800793          	li	a5,136
    1ce0:	8007b073          	csrc	0x800,a5
    1ce4:	0001                	nop
    1ce6:	450d                	li	a0,3
    1ce8:	24cd                	jal	1fca <EXTI_ClearFlag>
    1cea:	4509                	li	a0,2
    1cec:	147000ef          	jal	ra,2632 <PWR_EnterSTOPMode>
    1cf0:	9b3ff0ef          	jal	ra,16a2 <SystemInit>
    1cf4:	9f9ff0ef          	jal	ra,16ec <SystemCoreClockUpdate>
    1cf8:	e1cfe0ef          	jal	ra,314 <USBFS_RCC_Init>
    1cfc:	450d                	li	a0,3
    1cfe:	2c51                	jal	1f92 <EXTI_GetFlagStatus>
    1d00:	87aa                	mv	a5,a0
    1d02:	c789                	beqz	a5,1d0c <MCU_Sleep_Wakeup_Operate+0x42>
    1d04:	450d                	li	a0,3
    1d06:	24d1                	jal	1fca <EXTI_ClearFlag>
    1d08:	fc6ff0ef          	jal	ra,14ce <USBFS_Send_Resume>
    1d0c:	08800793          	li	a5,136
    1d10:	8007a073          	csrs	0x800,a5
    1d14:	0001                	nop
    1d16:	6791                	lui	a5,0x4
    1d18:	46878513          	addi	a0,a5,1128 # 4468 <_read+0x146>
    1d1c:	49e010ef          	jal	ra,31ba <puts>
    1d20:	0001                	nop
    1d22:	40b2                	lw	ra,12(sp)
    1d24:	4422                	lw	s0,8(sp)
    1d26:	0141                	addi	sp,sp,16
    1d28:	8082                	ret
    1d2a:	a001                	j	1d2a <MCU_Sleep_Wakeup_Operate+0x60>
    1d2c:	a001                	j	1d2c <MCU_Sleep_Wakeup_Operate+0x62>

00001d2e <Ecall_M_Mode_Handler>:
    1d2e:	a001                	j	1d2e <Ecall_M_Mode_Handler>

00001d30 <Ecall_U_Mode_Handler>:
    1d30:	a001                	j	1d30 <Ecall_U_Mode_Handler>

00001d32 <Break_Point_Handler>:
    1d32:	a001                	j	1d32 <Break_Point_Handler>

00001d34 <SysTick_Handler>:
    1d34:	a001                	j	1d34 <SysTick_Handler>

00001d36 <SW_Handler>:
    1d36:	a001                	j	1d36 <SW_Handler>

00001d38 <WWDG_IRQHandler>:
    1d38:	a001                	j	1d38 <WWDG_IRQHandler>

00001d3a <PVD_IRQHandler>:
    1d3a:	a001                	j	1d3a <PVD_IRQHandler>

00001d3c <FLASH_IRQHandler>:
    1d3c:	a001                	j	1d3c <FLASH_IRQHandler>

00001d3e <EXTI7_0_IRQHandler>:
    1d3e:	a001                	j	1d3e <EXTI7_0_IRQHandler>

00001d40 <AWU_IRQHandler>:
    1d40:	a001                	j	1d40 <AWU_IRQHandler>

00001d42 <DMA1_Channel1_IRQHandler>:
    1d42:	a001                	j	1d42 <DMA1_Channel1_IRQHandler>

00001d44 <DMA1_Channel2_IRQHandler>:
    1d44:	a001                	j	1d44 <DMA1_Channel2_IRQHandler>

00001d46 <DMA1_Channel3_IRQHandler>:
    1d46:	a001                	j	1d46 <DMA1_Channel3_IRQHandler>

00001d48 <DMA1_Channel4_IRQHandler>:
    1d48:	a001                	j	1d48 <DMA1_Channel4_IRQHandler>

00001d4a <DMA1_Channel5_IRQHandler>:
    1d4a:	a001                	j	1d4a <DMA1_Channel5_IRQHandler>

00001d4c <DMA1_Channel6_IRQHandler>:
    1d4c:	a001                	j	1d4c <DMA1_Channel6_IRQHandler>

00001d4e <DMA1_Channel7_IRQHandler>:
    1d4e:	a001                	j	1d4e <DMA1_Channel7_IRQHandler>

00001d50 <ADC1_IRQHandler>:
    1d50:	a001                	j	1d50 <ADC1_IRQHandler>

00001d52 <I2C1_EV_IRQHandler>:
    1d52:	a001                	j	1d52 <I2C1_EV_IRQHandler>

00001d54 <I2C1_ER_IRQHandler>:
    1d54:	a001                	j	1d54 <I2C1_ER_IRQHandler>

00001d56 <USART1_IRQHandler>:
    1d56:	a001                	j	1d56 <USART1_IRQHandler>

00001d58 <SPI1_IRQHandler>:
    1d58:	a001                	j	1d58 <SPI1_IRQHandler>

00001d5a <TIM1_BRK_IRQHandler>:
    1d5a:	a001                	j	1d5a <TIM1_BRK_IRQHandler>

00001d5c <TIM1_UP_IRQHandler>:
    1d5c:	a001                	j	1d5c <TIM1_UP_IRQHandler>

00001d5e <TIM1_TRG_COM_IRQHandler>:
    1d5e:	a001                	j	1d5e <TIM1_TRG_COM_IRQHandler>

00001d60 <TIM1_CC_IRQHandler>:
    1d60:	a001                	j	1d60 <TIM1_CC_IRQHandler>

00001d62 <TIM2_UP_IRQHandler>:
    1d62:	a001                	j	1d62 <TIM2_UP_IRQHandler>

00001d64 <USART2_IRQHandler>:
    1d64:	a001                	j	1d64 <USART2_IRQHandler>

00001d66 <EXTI15_8_IRQHandler>:
    1d66:	a001                	j	1d66 <EXTI15_8_IRQHandler>

00001d68 <EXTI25_16_IRQHandler>:
    1d68:	a001                	j	1d68 <EXTI25_16_IRQHandler>

00001d6a <USART3_IRQHandler>:
    1d6a:	a001                	j	1d6a <USART3_IRQHandler>

00001d6c <USART4_IRQHandler>:
    1d6c:	a001                	j	1d6c <USART4_IRQHandler>

00001d6e <DMA1_Channel8_IRQHandler>:
    1d6e:	a001                	j	1d6e <DMA1_Channel8_IRQHandler>
    1d70:	a001                	j	1d70 <DMA1_Channel8_IRQHandler+0x2>

00001d72 <USBFSWakeUp_IRQHandler>:
    1d72:	a001                	j	1d72 <USBFSWakeUp_IRQHandler>

00001d74 <PIOC_IRQHandler>:
    1d74:	a001                	j	1d74 <PIOC_IRQHandler>

00001d76 <OPA_IRQHandler>:
    1d76:	a001                	j	1d76 <OPA_IRQHandler>

00001d78 <USBPD_IRQHandler>:
    1d78:	a001                	j	1d78 <USBPD_IRQHandler>

00001d7a <USBPDWakeUp_IRQHandler>:
    1d7a:	a001                	j	1d7a <USBPDWakeUp_IRQHandler>

00001d7c <TIM2_CC_IRQHandler>:
    1d7c:	a001                	j	1d7c <TIM2_CC_IRQHandler>

00001d7e <TIM2_TRG_COM_IRQHandler>:
    1d7e:	a001                	j	1d7e <TIM2_TRG_COM_IRQHandler>

00001d80 <TIM2_BRK_IRQHandler>:
    1d80:	a001                	j	1d80 <TIM2_BRK_IRQHandler>
    1d82:	a001                	j	1d82 <TIM2_BRK_IRQHandler+0x2>

00001d84 <handle_reset>:
    1d84:	1ffff197          	auipc	gp,0x1ffff
    1d88:	c2418193          	addi	gp,gp,-988 # 200009a8 <__global_pointer$>
    1d8c:	20003117          	auipc	sp,0x20003
    1d90:	27410113          	addi	sp,sp,628 # 20005000 <_eusrstack>
    1d94:	00003517          	auipc	a0,0x3
    1d98:	9e450513          	addi	a0,a0,-1564 # 4778 <_data_lma>
    1d9c:	1fffe597          	auipc	a1,0x1fffe
    1da0:	26458593          	addi	a1,a1,612 # 20000000 <AHBPrescTable>
    1da4:	82018613          	addi	a2,gp,-2016 # 200001c8 <pUSBFS_Descr>
    1da8:	00c5fa63          	bgeu	a1,a2,1dbc <handle_reset+0x38>
    1dac:	00052283          	lw	t0,0(a0)
    1db0:	0055a023          	sw	t0,0(a1)
    1db4:	0511                	addi	a0,a0,4
    1db6:	0591                	addi	a1,a1,4
    1db8:	fec5eae3          	bltu	a1,a2,1dac <handle_reset+0x28>
    1dbc:	82018513          	addi	a0,gp,-2016 # 200001c8 <pUSBFS_Descr>
    1dc0:	97c18593          	addi	a1,gp,-1668 # 20000324 <_ebss>
    1dc4:	00b57763          	bgeu	a0,a1,1dd2 <handle_reset+0x4e>
    1dc8:	00052023          	sw	zero,0(a0)
    1dcc:	0511                	addi	a0,a0,4
    1dce:	feb56de3          	bltu	a0,a1,1dc8 <handle_reset+0x44>
    1dd2:	42fd                	li	t0,31
    1dd4:	bc029073          	csrw	0xbc0,t0
    1dd8:	428d                	li	t0,3
    1dda:	80429073          	csrw	0x804,t0
    1dde:	08800293          	li	t0,136
    1de2:	3002a073          	csrs	mstatus,t0
    1de6:	ffffe297          	auipc	t0,0xffffe
    1dea:	21e28293          	addi	t0,t0,542 # 4 <_einit>
    1dee:	0032e293          	ori	t0,t0,3
    1df2:	30529073          	csrw	mtvec,t0
    1df6:	8adff0ef          	jal	ra,16a2 <SystemInit>
    1dfa:	fffff297          	auipc	t0,0xfffff
    1dfe:	7c828293          	addi	t0,t0,1992 # 15c2 <main>
    1e02:	34129073          	csrw	mepc,t0
    1e06:	30200073          	mret

00001e0a <DBGMCU_GetCHIPID>:
    1e0a:	1141                	addi	sp,sp,-16
    1e0c:	c622                	sw	s0,12(sp)
    1e0e:	0800                	addi	s0,sp,16
    1e10:	1ffff7b7          	lui	a5,0x1ffff
    1e14:	70478793          	addi	a5,a5,1796 # 1ffff704 <_data_lma+0x1fffaf8c>
    1e18:	439c                	lw	a5,0(a5)
    1e1a:	853e                	mv	a0,a5
    1e1c:	4432                	lw	s0,12(sp)
    1e1e:	0141                	addi	sp,sp,16
    1e20:	8082                	ret

00001e22 <EXTI_Init>:
    1e22:	7179                	addi	sp,sp,-48
    1e24:	d622                	sw	s0,44(sp)
    1e26:	1800                	addi	s0,sp,48
    1e28:	fca42e23          	sw	a0,-36(s0)
    1e2c:	fe042623          	sw	zero,-20(s0)
    1e30:	400107b7          	lui	a5,0x40010
    1e34:	40078793          	addi	a5,a5,1024 # 40010400 <_eusrstack+0x2000b400>
    1e38:	fef42623          	sw	a5,-20(s0)
    1e3c:	fdc42783          	lw	a5,-36(s0)
    1e40:	47dc                	lw	a5,12(a5)
    1e42:	12078063          	beqz	a5,1f62 <EXTI_Init+0x140>
    1e46:	400107b7          	lui	a5,0x40010
    1e4a:	40078793          	addi	a5,a5,1024 # 40010400 <_eusrstack+0x2000b400>
    1e4e:	4394                	lw	a3,0(a5)
    1e50:	fdc42783          	lw	a5,-36(s0)
    1e54:	439c                	lw	a5,0(a5)
    1e56:	fff7c713          	not	a4,a5
    1e5a:	400107b7          	lui	a5,0x40010
    1e5e:	40078793          	addi	a5,a5,1024 # 40010400 <_eusrstack+0x2000b400>
    1e62:	8f75                	and	a4,a4,a3
    1e64:	c398                	sw	a4,0(a5)
    1e66:	400107b7          	lui	a5,0x40010
    1e6a:	40078793          	addi	a5,a5,1024 # 40010400 <_eusrstack+0x2000b400>
    1e6e:	43d4                	lw	a3,4(a5)
    1e70:	fdc42783          	lw	a5,-36(s0)
    1e74:	439c                	lw	a5,0(a5)
    1e76:	fff7c713          	not	a4,a5
    1e7a:	400107b7          	lui	a5,0x40010
    1e7e:	40078793          	addi	a5,a5,1024 # 40010400 <_eusrstack+0x2000b400>
    1e82:	8f75                	and	a4,a4,a3
    1e84:	c3d8                	sw	a4,4(a5)
    1e86:	fdc42783          	lw	a5,-36(s0)
    1e8a:	43dc                	lw	a5,4(a5)
    1e8c:	fec42703          	lw	a4,-20(s0)
    1e90:	97ba                	add	a5,a5,a4
    1e92:	fef42623          	sw	a5,-20(s0)
    1e96:	fec42783          	lw	a5,-20(s0)
    1e9a:	4394                	lw	a3,0(a5)
    1e9c:	fdc42783          	lw	a5,-36(s0)
    1ea0:	4398                	lw	a4,0(a5)
    1ea2:	fec42783          	lw	a5,-20(s0)
    1ea6:	8f55                	or	a4,a4,a3
    1ea8:	c398                	sw	a4,0(a5)
    1eaa:	400107b7          	lui	a5,0x40010
    1eae:	40078793          	addi	a5,a5,1024 # 40010400 <_eusrstack+0x2000b400>
    1eb2:	4794                	lw	a3,8(a5)
    1eb4:	fdc42783          	lw	a5,-36(s0)
    1eb8:	439c                	lw	a5,0(a5)
    1eba:	fff7c713          	not	a4,a5
    1ebe:	400107b7          	lui	a5,0x40010
    1ec2:	40078793          	addi	a5,a5,1024 # 40010400 <_eusrstack+0x2000b400>
    1ec6:	8f75                	and	a4,a4,a3
    1ec8:	c798                	sw	a4,8(a5)
    1eca:	400107b7          	lui	a5,0x40010
    1ece:	40078793          	addi	a5,a5,1024 # 40010400 <_eusrstack+0x2000b400>
    1ed2:	47d4                	lw	a3,12(a5)
    1ed4:	fdc42783          	lw	a5,-36(s0)
    1ed8:	439c                	lw	a5,0(a5)
    1eda:	fff7c713          	not	a4,a5
    1ede:	400107b7          	lui	a5,0x40010
    1ee2:	40078793          	addi	a5,a5,1024 # 40010400 <_eusrstack+0x2000b400>
    1ee6:	8f75                	and	a4,a4,a3
    1ee8:	c7d8                	sw	a4,12(a5)
    1eea:	fdc42783          	lw	a5,-36(s0)
    1eee:	4798                	lw	a4,8(a5)
    1ef0:	47c1                	li	a5,16
    1ef2:	02f71f63          	bne	a4,a5,1f30 <EXTI_Init+0x10e>
    1ef6:	400107b7          	lui	a5,0x40010
    1efa:	40078793          	addi	a5,a5,1024 # 40010400 <_eusrstack+0x2000b400>
    1efe:	4794                	lw	a3,8(a5)
    1f00:	fdc42783          	lw	a5,-36(s0)
    1f04:	4398                	lw	a4,0(a5)
    1f06:	400107b7          	lui	a5,0x40010
    1f0a:	40078793          	addi	a5,a5,1024 # 40010400 <_eusrstack+0x2000b400>
    1f0e:	8f55                	or	a4,a4,a3
    1f10:	c798                	sw	a4,8(a5)
    1f12:	400107b7          	lui	a5,0x40010
    1f16:	40078793          	addi	a5,a5,1024 # 40010400 <_eusrstack+0x2000b400>
    1f1a:	47d4                	lw	a3,12(a5)
    1f1c:	fdc42783          	lw	a5,-36(s0)
    1f20:	4398                	lw	a4,0(a5)
    1f22:	400107b7          	lui	a5,0x40010
    1f26:	40078793          	addi	a5,a5,1024 # 40010400 <_eusrstack+0x2000b400>
    1f2a:	8f55                	or	a4,a4,a3
    1f2c:	c7d8                	sw	a4,12(a5)
    1f2e:	a8b1                	j	1f8a <EXTI_Init+0x168>
    1f30:	400107b7          	lui	a5,0x40010
    1f34:	40078793          	addi	a5,a5,1024 # 40010400 <_eusrstack+0x2000b400>
    1f38:	fef42623          	sw	a5,-20(s0)
    1f3c:	fdc42783          	lw	a5,-36(s0)
    1f40:	479c                	lw	a5,8(a5)
    1f42:	fec42703          	lw	a4,-20(s0)
    1f46:	97ba                	add	a5,a5,a4
    1f48:	fef42623          	sw	a5,-20(s0)
    1f4c:	fec42783          	lw	a5,-20(s0)
    1f50:	4394                	lw	a3,0(a5)
    1f52:	fdc42783          	lw	a5,-36(s0)
    1f56:	4398                	lw	a4,0(a5)
    1f58:	fec42783          	lw	a5,-20(s0)
    1f5c:	8f55                	or	a4,a4,a3
    1f5e:	c398                	sw	a4,0(a5)
    1f60:	a02d                	j	1f8a <EXTI_Init+0x168>
    1f62:	fdc42783          	lw	a5,-36(s0)
    1f66:	43dc                	lw	a5,4(a5)
    1f68:	fec42703          	lw	a4,-20(s0)
    1f6c:	97ba                	add	a5,a5,a4
    1f6e:	fef42623          	sw	a5,-20(s0)
    1f72:	fec42783          	lw	a5,-20(s0)
    1f76:	4394                	lw	a3,0(a5)
    1f78:	fdc42783          	lw	a5,-36(s0)
    1f7c:	439c                	lw	a5,0(a5)
    1f7e:	fff7c713          	not	a4,a5
    1f82:	fec42783          	lw	a5,-20(s0)
    1f86:	8f75                	and	a4,a4,a3
    1f88:	c398                	sw	a4,0(a5)
    1f8a:	0001                	nop
    1f8c:	5432                	lw	s0,44(sp)
    1f8e:	6145                	addi	sp,sp,48
    1f90:	8082                	ret

00001f92 <EXTI_GetFlagStatus>:
    1f92:	7179                	addi	sp,sp,-48
    1f94:	d622                	sw	s0,44(sp)
    1f96:	1800                	addi	s0,sp,48
    1f98:	fca42e23          	sw	a0,-36(s0)
    1f9c:	fe042623          	sw	zero,-20(s0)
    1fa0:	400107b7          	lui	a5,0x40010
    1fa4:	40078793          	addi	a5,a5,1024 # 40010400 <_eusrstack+0x2000b400>
    1fa8:	4bd8                	lw	a4,20(a5)
    1faa:	fdc42783          	lw	a5,-36(s0)
    1fae:	8ff9                	and	a5,a5,a4
    1fb0:	c789                	beqz	a5,1fba <EXTI_GetFlagStatus+0x28>
    1fb2:	4785                	li	a5,1
    1fb4:	fef42623          	sw	a5,-20(s0)
    1fb8:	a019                	j	1fbe <EXTI_GetFlagStatus+0x2c>
    1fba:	fe042623          	sw	zero,-20(s0)
    1fbe:	fec42783          	lw	a5,-20(s0)
    1fc2:	853e                	mv	a0,a5
    1fc4:	5432                	lw	s0,44(sp)
    1fc6:	6145                	addi	sp,sp,48
    1fc8:	8082                	ret

00001fca <EXTI_ClearFlag>:
    1fca:	1101                	addi	sp,sp,-32
    1fcc:	ce22                	sw	s0,28(sp)
    1fce:	1000                	addi	s0,sp,32
    1fd0:	fea42623          	sw	a0,-20(s0)
    1fd4:	400107b7          	lui	a5,0x40010
    1fd8:	40078793          	addi	a5,a5,1024 # 40010400 <_eusrstack+0x2000b400>
    1fdc:	fec42703          	lw	a4,-20(s0)
    1fe0:	cbd8                	sw	a4,20(a5)
    1fe2:	0001                	nop
    1fe4:	4472                	lw	s0,28(sp)
    1fe6:	6105                	addi	sp,sp,32
    1fe8:	8082                	ret

00001fea <GPIO_Init>:
    1fea:	7139                	addi	sp,sp,-64
    1fec:	de22                	sw	s0,60(sp)
    1fee:	0080                	addi	s0,sp,64
    1ff0:	fca42623          	sw	a0,-52(s0)
    1ff4:	fcb42423          	sw	a1,-56(s0)
    1ff8:	fe042623          	sw	zero,-20(s0)
    1ffc:	fe042023          	sw	zero,-32(s0)
    2000:	fe042423          	sw	zero,-24(s0)
    2004:	fc042e23          	sw	zero,-36(s0)
    2008:	fe042223          	sw	zero,-28(s0)
    200c:	fc042c23          	sw	zero,-40(s0)
    2010:	fc842783          	lw	a5,-56(s0)
    2014:	479c                	lw	a5,8(a5)
    2016:	8bbd                	andi	a5,a5,15
    2018:	fef42623          	sw	a5,-20(s0)
    201c:	fc842783          	lw	a5,-56(s0)
    2020:	479c                	lw	a5,8(a5)
    2022:	8bc1                	andi	a5,a5,16
    2024:	cb89                	beqz	a5,2036 <GPIO_Init+0x4c>
    2026:	fc842783          	lw	a5,-56(s0)
    202a:	43dc                	lw	a5,4(a5)
    202c:	fec42703          	lw	a4,-20(s0)
    2030:	8fd9                	or	a5,a5,a4
    2032:	fef42623          	sw	a5,-20(s0)
    2036:	fc842783          	lw	a5,-56(s0)
    203a:	439c                	lw	a5,0(a5)
    203c:	0ff7f793          	zext.b	a5,a5
    2040:	cfe1                	beqz	a5,2118 <GPIO_Init+0x12e>
    2042:	fcc42783          	lw	a5,-52(s0)
    2046:	439c                	lw	a5,0(a5)
    2048:	fef42223          	sw	a5,-28(s0)
    204c:	fe042423          	sw	zero,-24(s0)
    2050:	a855                	j	2104 <GPIO_Init+0x11a>
    2052:	fe842783          	lw	a5,-24(s0)
    2056:	4705                	li	a4,1
    2058:	00f717b3          	sll	a5,a4,a5
    205c:	fcf42e23          	sw	a5,-36(s0)
    2060:	fc842783          	lw	a5,-56(s0)
    2064:	439c                	lw	a5,0(a5)
    2066:	fdc42703          	lw	a4,-36(s0)
    206a:	8ff9                	and	a5,a5,a4
    206c:	fef42023          	sw	a5,-32(s0)
    2070:	fe042703          	lw	a4,-32(s0)
    2074:	fdc42783          	lw	a5,-36(s0)
    2078:	08f71163          	bne	a4,a5,20fa <GPIO_Init+0x110>
    207c:	fe842783          	lw	a5,-24(s0)
    2080:	078a                	slli	a5,a5,0x2
    2082:	fcf42e23          	sw	a5,-36(s0)
    2086:	fdc42783          	lw	a5,-36(s0)
    208a:	473d                	li	a4,15
    208c:	00f717b3          	sll	a5,a4,a5
    2090:	fcf42c23          	sw	a5,-40(s0)
    2094:	fd842783          	lw	a5,-40(s0)
    2098:	fff7c793          	not	a5,a5
    209c:	fe442703          	lw	a4,-28(s0)
    20a0:	8ff9                	and	a5,a5,a4
    20a2:	fef42223          	sw	a5,-28(s0)
    20a6:	fdc42783          	lw	a5,-36(s0)
    20aa:	fec42703          	lw	a4,-20(s0)
    20ae:	00f717b3          	sll	a5,a4,a5
    20b2:	fe442703          	lw	a4,-28(s0)
    20b6:	8fd9                	or	a5,a5,a4
    20b8:	fef42223          	sw	a5,-28(s0)
    20bc:	fc842783          	lw	a5,-56(s0)
    20c0:	4798                	lw	a4,8(a5)
    20c2:	02800793          	li	a5,40
    20c6:	00f71b63          	bne	a4,a5,20dc <GPIO_Init+0xf2>
    20ca:	fe842783          	lw	a5,-24(s0)
    20ce:	4705                	li	a4,1
    20d0:	00f71733          	sll	a4,a4,a5
    20d4:	fcc42783          	lw	a5,-52(s0)
    20d8:	cbd8                	sw	a4,20(a5)
    20da:	a005                	j	20fa <GPIO_Init+0x110>
    20dc:	fc842783          	lw	a5,-56(s0)
    20e0:	4798                	lw	a4,8(a5)
    20e2:	04800793          	li	a5,72
    20e6:	00f71a63          	bne	a4,a5,20fa <GPIO_Init+0x110>
    20ea:	fe842783          	lw	a5,-24(s0)
    20ee:	4705                	li	a4,1
    20f0:	00f71733          	sll	a4,a4,a5
    20f4:	fcc42783          	lw	a5,-52(s0)
    20f8:	cb98                	sw	a4,16(a5)
    20fa:	fe842783          	lw	a5,-24(s0)
    20fe:	0785                	addi	a5,a5,1
    2100:	fef42423          	sw	a5,-24(s0)
    2104:	fe842703          	lw	a4,-24(s0)
    2108:	479d                	li	a5,7
    210a:	f4e7f4e3          	bgeu	a5,a4,2052 <GPIO_Init+0x68>
    210e:	fcc42783          	lw	a5,-52(s0)
    2112:	fe442703          	lw	a4,-28(s0)
    2116:	c398                	sw	a4,0(a5)
    2118:	fc842783          	lw	a5,-56(s0)
    211c:	4398                	lw	a4,0(a5)
    211e:	67c1                	lui	a5,0x10
    2120:	f0078793          	addi	a5,a5,-256 # ff00 <_data_lma+0xb788>
    2124:	8ff9                	and	a5,a5,a4
    2126:	18078c63          	beqz	a5,22be <GPIO_Init+0x2d4>
    212a:	1ffff7b7          	lui	a5,0x1ffff
    212e:	70478793          	addi	a5,a5,1796 # 1ffff704 <_data_lma+0x1fffaf8c>
    2132:	439c                	lw	a5,0(a5)
    2134:	0f07f793          	andi	a5,a5,240
    2138:	eba1                	bnez	a5,2188 <GPIO_Init+0x19e>
    213a:	fcc42703          	lw	a4,-52(s0)
    213e:	400117b7          	lui	a5,0x40011
    2142:	80078793          	addi	a5,a5,-2048 # 40010800 <_eusrstack+0x2000b800>
    2146:	00f71963          	bne	a4,a5,2158 <GPIO_Init+0x16e>
    214a:	200007b7          	lui	a5,0x20000
    214e:	1ac7a783          	lw	a5,428(a5) # 200001ac <CFGHR_tmpA>
    2152:	fef42223          	sw	a5,-28(s0)
    2156:	a835                	j	2192 <GPIO_Init+0x1a8>
    2158:	fcc42703          	lw	a4,-52(s0)
    215c:	400117b7          	lui	a5,0x40011
    2160:	c0078793          	addi	a5,a5,-1024 # 40010c00 <_eusrstack+0x2000bc00>
    2164:	00f71763          	bne	a4,a5,2172 <GPIO_Init+0x188>
    2168:	8081a783          	lw	a5,-2040(gp) # 200001b0 <CFGHR_tmpB>
    216c:	fef42223          	sw	a5,-28(s0)
    2170:	a00d                	j	2192 <GPIO_Init+0x1a8>
    2172:	fcc42703          	lw	a4,-52(s0)
    2176:	400117b7          	lui	a5,0x40011
    217a:	00f71c63          	bne	a4,a5,2192 <GPIO_Init+0x1a8>
    217e:	80c1a783          	lw	a5,-2036(gp) # 200001b4 <CFGHR_tmpC>
    2182:	fef42223          	sw	a5,-28(s0)
    2186:	a031                	j	2192 <GPIO_Init+0x1a8>
    2188:	fcc42783          	lw	a5,-52(s0)
    218c:	43dc                	lw	a5,4(a5)
    218e:	fef42223          	sw	a5,-28(s0)
    2192:	fe042423          	sw	zero,-24(s0)
    2196:	a865                	j	224e <GPIO_Init+0x264>
    2198:	fe842783          	lw	a5,-24(s0)
    219c:	07a1                	addi	a5,a5,8 # 40011008 <_eusrstack+0x2000c008>
    219e:	4705                	li	a4,1
    21a0:	00f717b3          	sll	a5,a4,a5
    21a4:	fcf42e23          	sw	a5,-36(s0)
    21a8:	fc842783          	lw	a5,-56(s0)
    21ac:	439c                	lw	a5,0(a5)
    21ae:	fdc42703          	lw	a4,-36(s0)
    21b2:	8ff9                	and	a5,a5,a4
    21b4:	fef42023          	sw	a5,-32(s0)
    21b8:	fe042703          	lw	a4,-32(s0)
    21bc:	fdc42783          	lw	a5,-36(s0)
    21c0:	08f71263          	bne	a4,a5,2244 <GPIO_Init+0x25a>
    21c4:	fe842783          	lw	a5,-24(s0)
    21c8:	078a                	slli	a5,a5,0x2
    21ca:	fcf42e23          	sw	a5,-36(s0)
    21ce:	fdc42783          	lw	a5,-36(s0)
    21d2:	473d                	li	a4,15
    21d4:	00f717b3          	sll	a5,a4,a5
    21d8:	fcf42c23          	sw	a5,-40(s0)
    21dc:	fd842783          	lw	a5,-40(s0)
    21e0:	fff7c793          	not	a5,a5
    21e4:	fe442703          	lw	a4,-28(s0)
    21e8:	8ff9                	and	a5,a5,a4
    21ea:	fef42223          	sw	a5,-28(s0)
    21ee:	fdc42783          	lw	a5,-36(s0)
    21f2:	fec42703          	lw	a4,-20(s0)
    21f6:	00f717b3          	sll	a5,a4,a5
    21fa:	fe442703          	lw	a4,-28(s0)
    21fe:	8fd9                	or	a5,a5,a4
    2200:	fef42223          	sw	a5,-28(s0)
    2204:	fc842783          	lw	a5,-56(s0)
    2208:	4798                	lw	a4,8(a5)
    220a:	02800793          	li	a5,40
    220e:	00f71b63          	bne	a4,a5,2224 <GPIO_Init+0x23a>
    2212:	fe842783          	lw	a5,-24(s0)
    2216:	07a1                	addi	a5,a5,8
    2218:	4705                	li	a4,1
    221a:	00f71733          	sll	a4,a4,a5
    221e:	fcc42783          	lw	a5,-52(s0)
    2222:	cbd8                	sw	a4,20(a5)
    2224:	fc842783          	lw	a5,-56(s0)
    2228:	4798                	lw	a4,8(a5)
    222a:	04800793          	li	a5,72
    222e:	00f71b63          	bne	a4,a5,2244 <GPIO_Init+0x25a>
    2232:	fe842783          	lw	a5,-24(s0)
    2236:	07a1                	addi	a5,a5,8
    2238:	4705                	li	a4,1
    223a:	00f71733          	sll	a4,a4,a5
    223e:	fcc42783          	lw	a5,-52(s0)
    2242:	cb98                	sw	a4,16(a5)
    2244:	fe842783          	lw	a5,-24(s0)
    2248:	0785                	addi	a5,a5,1
    224a:	fef42423          	sw	a5,-24(s0)
    224e:	fe842703          	lw	a4,-24(s0)
    2252:	479d                	li	a5,7
    2254:	f4e7f2e3          	bgeu	a5,a4,2198 <GPIO_Init+0x1ae>
    2258:	fcc42783          	lw	a5,-52(s0)
    225c:	fe442703          	lw	a4,-28(s0)
    2260:	c3d8                	sw	a4,4(a5)
    2262:	1ffff7b7          	lui	a5,0x1ffff
    2266:	70478793          	addi	a5,a5,1796 # 1ffff704 <_data_lma+0x1fffaf8c>
    226a:	439c                	lw	a5,0(a5)
    226c:	0f07f793          	andi	a5,a5,240
    2270:	e7b9                	bnez	a5,22be <GPIO_Init+0x2d4>
    2272:	fcc42703          	lw	a4,-52(s0)
    2276:	400117b7          	lui	a5,0x40011
    227a:	80078793          	addi	a5,a5,-2048 # 40010800 <_eusrstack+0x2000b800>
    227e:	00f71963          	bne	a4,a5,2290 <GPIO_Init+0x2a6>
    2282:	200007b7          	lui	a5,0x20000
    2286:	fe442703          	lw	a4,-28(s0)
    228a:	1ae7a623          	sw	a4,428(a5) # 200001ac <CFGHR_tmpA>
    228e:	a805                	j	22be <GPIO_Init+0x2d4>
    2290:	fcc42703          	lw	a4,-52(s0)
    2294:	400117b7          	lui	a5,0x40011
    2298:	c0078793          	addi	a5,a5,-1024 # 40010c00 <_eusrstack+0x2000bc00>
    229c:	00f71763          	bne	a4,a5,22aa <GPIO_Init+0x2c0>
    22a0:	fe442703          	lw	a4,-28(s0)
    22a4:	80e1a423          	sw	a4,-2040(gp) # 200001b0 <CFGHR_tmpB>
    22a8:	a819                	j	22be <GPIO_Init+0x2d4>
    22aa:	fcc42703          	lw	a4,-52(s0)
    22ae:	400117b7          	lui	a5,0x40011
    22b2:	00f71663          	bne	a4,a5,22be <GPIO_Init+0x2d4>
    22b6:	fe442703          	lw	a4,-28(s0)
    22ba:	80e1a623          	sw	a4,-2036(gp) # 200001b4 <CFGHR_tmpC>
    22be:	fc842783          	lw	a5,-56(s0)
    22c2:	4398                	lw	a4,0(a5)
    22c4:	67c1                	lui	a5,0x10
    22c6:	0cf76e63          	bltu	a4,a5,23a2 <GPIO_Init+0x3b8>
    22ca:	fcc42783          	lw	a5,-52(s0)
    22ce:	4fdc                	lw	a5,28(a5)
    22d0:	fef42223          	sw	a5,-28(s0)
    22d4:	fe042423          	sw	zero,-24(s0)
    22d8:	a85d                	j	238e <GPIO_Init+0x3a4>
    22da:	fe842783          	lw	a5,-24(s0)
    22de:	07c1                	addi	a5,a5,16 # 10010 <_data_lma+0xb898>
    22e0:	4705                	li	a4,1
    22e2:	00f717b3          	sll	a5,a4,a5
    22e6:	fcf42e23          	sw	a5,-36(s0)
    22ea:	fc842783          	lw	a5,-56(s0)
    22ee:	439c                	lw	a5,0(a5)
    22f0:	fdc42703          	lw	a4,-36(s0)
    22f4:	8ff9                	and	a5,a5,a4
    22f6:	fef42023          	sw	a5,-32(s0)
    22fa:	fe042703          	lw	a4,-32(s0)
    22fe:	fdc42783          	lw	a5,-36(s0)
    2302:	08f71163          	bne	a4,a5,2384 <GPIO_Init+0x39a>
    2306:	fe842783          	lw	a5,-24(s0)
    230a:	078a                	slli	a5,a5,0x2
    230c:	fcf42e23          	sw	a5,-36(s0)
    2310:	fdc42783          	lw	a5,-36(s0)
    2314:	473d                	li	a4,15
    2316:	00f717b3          	sll	a5,a4,a5
    231a:	fcf42c23          	sw	a5,-40(s0)
    231e:	fd842783          	lw	a5,-40(s0)
    2322:	fff7c793          	not	a5,a5
    2326:	fe442703          	lw	a4,-28(s0)
    232a:	8ff9                	and	a5,a5,a4
    232c:	fef42223          	sw	a5,-28(s0)
    2330:	fdc42783          	lw	a5,-36(s0)
    2334:	fec42703          	lw	a4,-20(s0)
    2338:	00f717b3          	sll	a5,a4,a5
    233c:	fe442703          	lw	a4,-28(s0)
    2340:	8fd9                	or	a5,a5,a4
    2342:	fef42223          	sw	a5,-28(s0)
    2346:	fc842783          	lw	a5,-56(s0)
    234a:	4798                	lw	a4,8(a5)
    234c:	02800793          	li	a5,40
    2350:	00f71b63          	bne	a4,a5,2366 <GPIO_Init+0x37c>
    2354:	fe842783          	lw	a5,-24(s0)
    2358:	07c1                	addi	a5,a5,16
    235a:	4705                	li	a4,1
    235c:	00f71733          	sll	a4,a4,a5
    2360:	fcc42783          	lw	a5,-52(s0)
    2364:	cbd8                	sw	a4,20(a5)
    2366:	fc842783          	lw	a5,-56(s0)
    236a:	4798                	lw	a4,8(a5)
    236c:	04800793          	li	a5,72
    2370:	00f71a63          	bne	a4,a5,2384 <GPIO_Init+0x39a>
    2374:	fe842783          	lw	a5,-24(s0)
    2378:	4705                	li	a4,1
    237a:	00f71733          	sll	a4,a4,a5
    237e:	fcc42783          	lw	a5,-52(s0)
    2382:	d398                	sw	a4,32(a5)
    2384:	fe842783          	lw	a5,-24(s0)
    2388:	0785                	addi	a5,a5,1
    238a:	fef42423          	sw	a5,-24(s0)
    238e:	fe842703          	lw	a4,-24(s0)
    2392:	479d                	li	a5,7
    2394:	f4e7f3e3          	bgeu	a5,a4,22da <GPIO_Init+0x2f0>
    2398:	fcc42783          	lw	a5,-52(s0)
    239c:	fe442703          	lw	a4,-28(s0)
    23a0:	cfd8                	sw	a4,28(a5)
    23a2:	0001                	nop
    23a4:	5472                	lw	s0,60(sp)
    23a6:	6121                	addi	sp,sp,64
    23a8:	8082                	ret

000023aa <GPIO_ReadInputDataBit>:
    23aa:	7179                	addi	sp,sp,-48
    23ac:	d622                	sw	s0,44(sp)
    23ae:	1800                	addi	s0,sp,48
    23b0:	fca42e23          	sw	a0,-36(s0)
    23b4:	fcb42c23          	sw	a1,-40(s0)
    23b8:	fe0407a3          	sb	zero,-17(s0)
    23bc:	fdc42783          	lw	a5,-36(s0)
    23c0:	4798                	lw	a4,8(a5)
    23c2:	fd842783          	lw	a5,-40(s0)
    23c6:	8ff9                	and	a5,a5,a4
    23c8:	c789                	beqz	a5,23d2 <GPIO_ReadInputDataBit+0x28>
    23ca:	4785                	li	a5,1
    23cc:	fef407a3          	sb	a5,-17(s0)
    23d0:	a019                	j	23d6 <GPIO_ReadInputDataBit+0x2c>
    23d2:	fe0407a3          	sb	zero,-17(s0)
    23d6:	fef44783          	lbu	a5,-17(s0)
    23da:	853e                	mv	a0,a5
    23dc:	5432                	lw	s0,44(sp)
    23de:	6145                	addi	sp,sp,48
    23e0:	8082                	ret

000023e2 <GPIO_SetBits>:
    23e2:	1101                	addi	sp,sp,-32
    23e4:	ce22                	sw	s0,28(sp)
    23e6:	1000                	addi	s0,sp,32
    23e8:	fea42623          	sw	a0,-20(s0)
    23ec:	feb42423          	sw	a1,-24(s0)
    23f0:	fe842703          	lw	a4,-24(s0)
    23f4:	67c1                	lui	a5,0x10
    23f6:	17fd                	addi	a5,a5,-1 # ffff <_data_lma+0xb887>
    23f8:	8f7d                	and	a4,a4,a5
    23fa:	fec42783          	lw	a5,-20(s0)
    23fe:	cb98                	sw	a4,16(a5)
    2400:	fe842783          	lw	a5,-24(s0)
    2404:	0107d713          	srli	a4,a5,0x10
    2408:	fec42783          	lw	a5,-20(s0)
    240c:	d398                	sw	a4,32(a5)
    240e:	0001                	nop
    2410:	4472                	lw	s0,28(sp)
    2412:	6105                	addi	sp,sp,32
    2414:	8082                	ret

00002416 <GPIO_ResetBits>:
    2416:	1101                	addi	sp,sp,-32
    2418:	ce22                	sw	s0,28(sp)
    241a:	1000                	addi	s0,sp,32
    241c:	fea42623          	sw	a0,-20(s0)
    2420:	feb42423          	sw	a1,-24(s0)
    2424:	fec42783          	lw	a5,-20(s0)
    2428:	fe842703          	lw	a4,-24(s0)
    242c:	cbd8                	sw	a4,20(a5)
    242e:	0001                	nop
    2430:	4472                	lw	s0,28(sp)
    2432:	6105                	addi	sp,sp,32
    2434:	8082                	ret

00002436 <GPIO_EXTILineConfig>:
    2436:	7179                	addi	sp,sp,-48
    2438:	d622                	sw	s0,44(sp)
    243a:	1800                	addi	s0,sp,48
    243c:	87aa                	mv	a5,a0
    243e:	872e                	mv	a4,a1
    2440:	fcf40fa3          	sb	a5,-33(s0)
    2444:	87ba                	mv	a5,a4
    2446:	fcf41e23          	sh	a5,-36(s0)
    244a:	fe042623          	sw	zero,-20(s0)
    244e:	fdc45783          	lhu	a5,-36(s0)
    2452:	8bbd                	andi	a5,a5,15
    2454:	0786                	slli	a5,a5,0x1
    2456:	470d                	li	a4,3
    2458:	00f717b3          	sll	a5,a4,a5
    245c:	fef42623          	sw	a5,-20(s0)
    2460:	40010737          	lui	a4,0x40010
    2464:	fdc45783          	lhu	a5,-36(s0)
    2468:	8391                	srli	a5,a5,0x4
    246a:	07c2                	slli	a5,a5,0x10
    246c:	83c1                	srli	a5,a5,0x10
    246e:	078a                	slli	a5,a5,0x2
    2470:	97ba                	add	a5,a5,a4
    2472:	4798                	lw	a4,8(a5)
    2474:	fec42783          	lw	a5,-20(s0)
    2478:	fff7c793          	not	a5,a5
    247c:	400106b7          	lui	a3,0x40010
    2480:	fdc45603          	lhu	a2,-36(s0)
    2484:	8211                	srli	a2,a2,0x4
    2486:	0642                	slli	a2,a2,0x10
    2488:	8241                	srli	a2,a2,0x10
    248a:	8f7d                	and	a4,a4,a5
    248c:	00261793          	slli	a5,a2,0x2
    2490:	97b6                	add	a5,a5,a3
    2492:	c798                	sw	a4,8(a5)
    2494:	40010737          	lui	a4,0x40010
    2498:	fdc45783          	lhu	a5,-36(s0)
    249c:	8391                	srli	a5,a5,0x4
    249e:	07c2                	slli	a5,a5,0x10
    24a0:	83c1                	srli	a5,a5,0x10
    24a2:	078a                	slli	a5,a5,0x2
    24a4:	97ba                	add	a5,a5,a4
    24a6:	4798                	lw	a4,8(a5)
    24a8:	fdf44683          	lbu	a3,-33(s0)
    24ac:	fdc45783          	lhu	a5,-36(s0)
    24b0:	8bbd                	andi	a5,a5,15
    24b2:	0786                	slli	a5,a5,0x1
    24b4:	00f697b3          	sll	a5,a3,a5
    24b8:	400106b7          	lui	a3,0x40010
    24bc:	fdc45603          	lhu	a2,-36(s0)
    24c0:	8211                	srli	a2,a2,0x4
    24c2:	0642                	slli	a2,a2,0x10
    24c4:	8241                	srli	a2,a2,0x10
    24c6:	8f5d                	or	a4,a4,a5
    24c8:	00261793          	slli	a5,a2,0x2
    24cc:	97b6                	add	a5,a5,a3
    24ce:	c798                	sw	a4,8(a5)
    24d0:	0001                	nop
    24d2:	5432                	lw	s0,44(sp)
    24d4:	6145                	addi	sp,sp,48
    24d6:	8082                	ret

000024d8 <NVIC_PriorityGroupConfig>:
    24d8:	1101                	addi	sp,sp,-32
    24da:	ce22                	sw	s0,28(sp)
    24dc:	1000                	addi	s0,sp,32
    24de:	fea42623          	sw	a0,-20(s0)
    24e2:	fec42703          	lw	a4,-20(s0)
    24e6:	84e1a823          	sw	a4,-1968(gp) # 200001f8 <NVIC_Priority_Group>
    24ea:	0001                	nop
    24ec:	4472                	lw	s0,28(sp)
    24ee:	6105                	addi	sp,sp,32
    24f0:	8082                	ret

000024f2 <NVIC_Init>:
    24f2:	7139                	addi	sp,sp,-64
    24f4:	de22                	sw	s0,60(sp)
    24f6:	0080                	addi	s0,sp,64
    24f8:	fca42623          	sw	a0,-52(s0)
    24fc:	8501a703          	lw	a4,-1968(gp) # 200001f8 <NVIC_Priority_Group>
    2500:	4785                	li	a5,1
    2502:	08f71263          	bne	a4,a5,2586 <NVIC_Init+0x94>
    2506:	fcc42783          	lw	a5,-52(s0)
    250a:	3398                	lbu	a4,1(a5)
    250c:	4785                	li	a5,1
    250e:	04f71063          	bne	a4,a5,254e <NVIC_Init+0x5c>
    2512:	fcc42783          	lw	a5,-52(s0)
    2516:	239c                	lbu	a5,0(a5)
    2518:	873e                	mv	a4,a5
    251a:	fcc42783          	lw	a5,-52(s0)
    251e:	23bc                	lbu	a5,2(a5)
    2520:	0796                	slli	a5,a5,0x5
    2522:	07e2                	slli	a5,a5,0x18
    2524:	87e1                	srai	a5,a5,0x18
    2526:	f807e793          	ori	a5,a5,-128
    252a:	07e2                	slli	a5,a5,0x18
    252c:	87e1                	srai	a5,a5,0x18
    252e:	0ff7f793          	zext.b	a5,a5
    2532:	fee42623          	sw	a4,-20(s0)
    2536:	fef405a3          	sb	a5,-21(s0)
    253a:	e000e737          	lui	a4,0xe000e
    253e:	fec42783          	lw	a5,-20(s0)
    2542:	97ba                	add	a5,a5,a4
    2544:	feb44703          	lbu	a4,-21(s0)
    2548:	40e78023          	sb	a4,1024(a5)
    254c:	a82d                	j	2586 <NVIC_Init+0x94>
    254e:	fcc42783          	lw	a5,-52(s0)
    2552:	339c                	lbu	a5,1(a5)
    2554:	eb8d                	bnez	a5,2586 <NVIC_Init+0x94>
    2556:	fcc42783          	lw	a5,-52(s0)
    255a:	239c                	lbu	a5,0(a5)
    255c:	873e                	mv	a4,a5
    255e:	fcc42783          	lw	a5,-52(s0)
    2562:	23bc                	lbu	a5,2(a5)
    2564:	0796                	slli	a5,a5,0x5
    2566:	0ff7f793          	zext.b	a5,a5
    256a:	fee42223          	sw	a4,-28(s0)
    256e:	fef401a3          	sb	a5,-29(s0)
    2572:	e000e737          	lui	a4,0xe000e
    2576:	fe442783          	lw	a5,-28(s0)
    257a:	97ba                	add	a5,a5,a4
    257c:	fe344703          	lbu	a4,-29(s0)
    2580:	40e78023          	sb	a4,1024(a5)
    2584:	0001                	nop
    2586:	fcc42783          	lw	a5,-52(s0)
    258a:	43dc                	lw	a5,4(a5)
    258c:	c79d                	beqz	a5,25ba <NVIC_Init+0xc8>
    258e:	fcc42783          	lw	a5,-52(s0)
    2592:	239c                	lbu	a5,0(a5)
    2594:	fcf42e23          	sw	a5,-36(s0)
    2598:	fdc42783          	lw	a5,-36(s0)
    259c:	8bfd                	andi	a5,a5,31
    259e:	4705                	li	a4,1
    25a0:	00f716b3          	sll	a3,a4,a5
    25a4:	e000e737          	lui	a4,0xe000e
    25a8:	fdc42783          	lw	a5,-36(s0)
    25ac:	8395                	srli	a5,a5,0x5
    25ae:	04078793          	addi	a5,a5,64
    25b2:	078a                	slli	a5,a5,0x2
    25b4:	97ba                	add	a5,a5,a4
    25b6:	c394                	sw	a3,0(a5)
    25b8:	a03d                	j	25e6 <NVIC_Init+0xf4>
    25ba:	fcc42783          	lw	a5,-52(s0)
    25be:	239c                	lbu	a5,0(a5)
    25c0:	fcf42c23          	sw	a5,-40(s0)
    25c4:	fd842783          	lw	a5,-40(s0)
    25c8:	8bfd                	andi	a5,a5,31
    25ca:	4705                	li	a4,1
    25cc:	00f716b3          	sll	a3,a4,a5
    25d0:	e000e737          	lui	a4,0xe000e
    25d4:	fd842783          	lw	a5,-40(s0)
    25d8:	8395                	srli	a5,a5,0x5
    25da:	06078793          	addi	a5,a5,96
    25de:	078a                	slli	a5,a5,0x2
    25e0:	97ba                	add	a5,a5,a4
    25e2:	c394                	sw	a3,0(a5)
    25e4:	0001                	nop
    25e6:	0001                	nop
    25e8:	5472                	lw	s0,60(sp)
    25ea:	6121                	addi	sp,sp,64
    25ec:	8082                	ret

000025ee <PWR_PVDLevelConfig>:
    25ee:	7179                	addi	sp,sp,-48
    25f0:	d622                	sw	s0,44(sp)
    25f2:	1800                	addi	s0,sp,48
    25f4:	fca42e23          	sw	a0,-36(s0)
    25f8:	fe042623          	sw	zero,-20(s0)
    25fc:	400077b7          	lui	a5,0x40007
    2600:	439c                	lw	a5,0(a5)
    2602:	fef42623          	sw	a5,-20(s0)
    2606:	fec42783          	lw	a5,-20(s0)
    260a:	f9f7f793          	andi	a5,a5,-97
    260e:	fef42623          	sw	a5,-20(s0)
    2612:	fec42703          	lw	a4,-20(s0)
    2616:	fdc42783          	lw	a5,-36(s0)
    261a:	8fd9                	or	a5,a5,a4
    261c:	fef42623          	sw	a5,-20(s0)
    2620:	400077b7          	lui	a5,0x40007
    2624:	fec42703          	lw	a4,-20(s0)
    2628:	c398                	sw	a4,0(a5)
    262a:	0001                	nop
    262c:	5432                	lw	s0,44(sp)
    262e:	6145                	addi	sp,sp,48
    2630:	8082                	ret

00002632 <PWR_EnterSTOPMode>:
    2632:	7179                	addi	sp,sp,-48
    2634:	d622                	sw	s0,44(sp)
    2636:	1800                	addi	s0,sp,48
    2638:	87aa                	mv	a5,a0
    263a:	fcf40fa3          	sb	a5,-33(s0)
    263e:	fe042623          	sw	zero,-20(s0)
    2642:	400077b7          	lui	a5,0x40007
    2646:	439c                	lw	a5,0(a5)
    2648:	fef42623          	sw	a5,-20(s0)
    264c:	fec42783          	lw	a5,-20(s0)
    2650:	9bf5                	andi	a5,a5,-3
    2652:	fef42623          	sw	a5,-20(s0)
    2656:	400077b7          	lui	a5,0x40007
    265a:	fec42703          	lw	a4,-20(s0)
    265e:	c398                	sw	a4,0(a5)
    2660:	e000e737          	lui	a4,0xe000e
    2664:	6785                	lui	a5,0x1
    2666:	97ba                	add	a5,a5,a4
    2668:	d107a783          	lw	a5,-752(a5) # d10 <USBFS_IRQHandler+0x478>
    266c:	e000e6b7          	lui	a3,0xe000e
    2670:	0047e713          	ori	a4,a5,4
    2674:	6785                	lui	a5,0x1
    2676:	97b6                	add	a5,a5,a3
    2678:	d0e7a823          	sw	a4,-752(a5) # d10 <USBFS_IRQHandler+0x478>
    267c:	fdf44703          	lbu	a4,-33(s0)
    2680:	4785                	li	a5,1
    2682:	02f71363          	bne	a4,a5,26a8 <PWR_EnterSTOPMode+0x76>
    2686:	e000e737          	lui	a4,0xe000e
    268a:	6785                	lui	a5,0x1
    268c:	97ba                	add	a5,a5,a4
    268e:	d107a783          	lw	a5,-752(a5) # d10 <USBFS_IRQHandler+0x478>
    2692:	e000e6b7          	lui	a3,0xe000e
    2696:	ff77f713          	andi	a4,a5,-9
    269a:	6785                	lui	a5,0x1
    269c:	97b6                	add	a5,a5,a3
    269e:	d0e7a823          	sw	a4,-752(a5) # d10 <USBFS_IRQHandler+0x478>
    26a2:	10500073          	wfi
    26a6:	a871                	j	2742 <PWR_EnterSTOPMode+0x110>
    26a8:	e000e737          	lui	a4,0xe000e
    26ac:	6785                	lui	a5,0x1
    26ae:	97ba                	add	a5,a5,a4
    26b0:	d107a783          	lw	a5,-752(a5) # d10 <USBFS_IRQHandler+0x478>
    26b4:	fef42423          	sw	a5,-24(s0)
    26b8:	e000e737          	lui	a4,0xe000e
    26bc:	6785                	lui	a5,0x1
    26be:	97ba                	add	a5,a5,a4
    26c0:	d107a783          	lw	a5,-752(a5) # d10 <USBFS_IRQHandler+0x478>
    26c4:	e000e6b7          	lui	a3,0xe000e
    26c8:	0287e713          	ori	a4,a5,40
    26cc:	6785                	lui	a5,0x1
    26ce:	97b6                	add	a5,a5,a3
    26d0:	d0e7a823          	sw	a4,-752(a5) # d10 <USBFS_IRQHandler+0x478>
    26d4:	e000e737          	lui	a4,0xe000e
    26d8:	6785                	lui	a5,0x1
    26da:	97ba                	add	a5,a5,a4
    26dc:	d107a783          	lw	a5,-752(a5) # d10 <USBFS_IRQHandler+0x478>
    26e0:	fdf7f713          	andi	a4,a5,-33
    26e4:	fe842783          	lw	a5,-24(s0)
    26e8:	0207f793          	andi	a5,a5,32
    26ec:	e000e6b7          	lui	a3,0xe000e
    26f0:	8f5d                	or	a4,a4,a5
    26f2:	6785                	lui	a5,0x1
    26f4:	97b6                	add	a5,a5,a3
    26f6:	d0e7a823          	sw	a4,-752(a5) # d10 <USBFS_IRQHandler+0x478>
    26fa:	0001                	nop
    26fc:	e000e737          	lui	a4,0xe000e
    2700:	6785                	lui	a5,0x1
    2702:	97ba                	add	a5,a5,a4
    2704:	d107a783          	lw	a5,-752(a5) # d10 <USBFS_IRQHandler+0x478>
    2708:	e000e6b7          	lui	a3,0xe000e
    270c:	0087e713          	ori	a4,a5,8
    2710:	6785                	lui	a5,0x1
    2712:	97b6                	add	a5,a5,a3
    2714:	d0e7a823          	sw	a4,-752(a5) # d10 <USBFS_IRQHandler+0x478>
    2718:	10500073          	wfi
    271c:	0001                	nop
    271e:	e000e737          	lui	a4,0xe000e
    2722:	6785                	lui	a5,0x1
    2724:	97ba                	add	a5,a5,a4
    2726:	d107a783          	lw	a5,-752(a5) # d10 <USBFS_IRQHandler+0x478>
    272a:	e000e6b7          	lui	a3,0xe000e
    272e:	0087e713          	ori	a4,a5,8
    2732:	6785                	lui	a5,0x1
    2734:	97b6                	add	a5,a5,a3
    2736:	d0e7a823          	sw	a4,-752(a5) # d10 <USBFS_IRQHandler+0x478>
    273a:	10500073          	wfi
    273e:	0001                	nop
    2740:	0001                	nop
    2742:	e000e737          	lui	a4,0xe000e
    2746:	6785                	lui	a5,0x1
    2748:	97ba                	add	a5,a5,a4
    274a:	d107a783          	lw	a5,-752(a5) # d10 <USBFS_IRQHandler+0x478>
    274e:	e000e6b7          	lui	a3,0xe000e
    2752:	ffb7f713          	andi	a4,a5,-5
    2756:	6785                	lui	a5,0x1
    2758:	97b6                	add	a5,a5,a3
    275a:	d0e7a823          	sw	a4,-752(a5) # d10 <USBFS_IRQHandler+0x478>
    275e:	0001                	nop
    2760:	5432                	lw	s0,44(sp)
    2762:	6145                	addi	sp,sp,48
    2764:	8082                	ret

00002766 <PWR_GetFlagStatus>:
    2766:	7179                	addi	sp,sp,-48
    2768:	d622                	sw	s0,44(sp)
    276a:	1800                	addi	s0,sp,48
    276c:	fca42e23          	sw	a0,-36(s0)
    2770:	fe042623          	sw	zero,-20(s0)
    2774:	400077b7          	lui	a5,0x40007
    2778:	43d8                	lw	a4,4(a5)
    277a:	fdc42783          	lw	a5,-36(s0)
    277e:	8ff9                	and	a5,a5,a4
    2780:	c789                	beqz	a5,278a <PWR_GetFlagStatus+0x24>
    2782:	4785                	li	a5,1
    2784:	fef42623          	sw	a5,-20(s0)
    2788:	a019                	j	278e <PWR_GetFlagStatus+0x28>
    278a:	fe042623          	sw	zero,-20(s0)
    278e:	fec42783          	lw	a5,-20(s0)
    2792:	853e                	mv	a0,a5
    2794:	5432                	lw	s0,44(sp)
    2796:	6145                	addi	sp,sp,48
    2798:	8082                	ret

0000279a <PWR_VDD_SupplyVoltage>:
    279a:	1101                	addi	sp,sp,-32
    279c:	ce06                	sw	ra,28(sp)
    279e:	cc22                	sw	s0,24(sp)
    27a0:	1000                	addi	s0,sp,32
    27a2:	4785                	li	a5,1
    27a4:	fef42623          	sw	a5,-20(s0)
    27a8:	2d2d                	jal	2de2 <Delay_Init>
    27aa:	4585                	li	a1,1
    27ac:	10000537          	lui	a0,0x10000
    27b0:	2ab1                	jal	290c <RCC_APB1PeriphClockCmd>
    27b2:	06000513          	li	a0,96
    27b6:	3d25                	jal	25ee <PWR_PVDLevelConfig>
    27b8:	4529                	li	a0,10
    27ba:	25ad                	jal	2e24 <Delay_Us>
    27bc:	4511                	li	a0,4
    27be:	3765                	jal	2766 <PWR_GetFlagStatus>
    27c0:	87aa                	mv	a5,a0
    27c2:	e399                	bnez	a5,27c8 <PWR_VDD_SupplyVoltage+0x2e>
    27c4:	fe042623          	sw	zero,-20(s0)
    27c8:	4501                	li	a0,0
    27ca:	3515                	jal	25ee <PWR_PVDLevelConfig>
    27cc:	fec42783          	lw	a5,-20(s0)
    27d0:	853e                	mv	a0,a5
    27d2:	40f2                	lw	ra,28(sp)
    27d4:	4462                	lw	s0,24(sp)
    27d6:	6105                	addi	sp,sp,32
    27d8:	8082                	ret

000027da <RCC_GetClocksFreq>:
    27da:	7179                	addi	sp,sp,-48
    27dc:	d622                	sw	s0,44(sp)
    27de:	1800                	addi	s0,sp,48
    27e0:	fca42e23          	sw	a0,-36(s0)
    27e4:	fe042623          	sw	zero,-20(s0)
    27e8:	fe042423          	sw	zero,-24(s0)
    27ec:	fdc42783          	lw	a5,-36(s0)
    27f0:	02dc7737          	lui	a4,0x2dc7
    27f4:	c0070713          	addi	a4,a4,-1024 # 2dc6c00 <_data_lma+0x2dc2488>
    27f8:	c398                	sw	a4,0(a5)
    27fa:	400217b7          	lui	a5,0x40021
    27fe:	43dc                	lw	a5,4(a5)
    2800:	0f07f793          	andi	a5,a5,240
    2804:	fef42623          	sw	a5,-20(s0)
    2808:	fec42783          	lw	a5,-20(s0)
    280c:	8391                	srli	a5,a5,0x4
    280e:	fef42623          	sw	a5,-20(s0)
    2812:	200007b7          	lui	a5,0x20000
    2816:	13878713          	addi	a4,a5,312 # 20000138 <APBAHBPrescTable>
    281a:	fec42783          	lw	a5,-20(s0)
    281e:	97ba                	add	a5,a5,a4
    2820:	239c                	lbu	a5,0(a5)
    2822:	0ff7f793          	zext.b	a5,a5
    2826:	fef42423          	sw	a5,-24(s0)
    282a:	400217b7          	lui	a5,0x40021
    282e:	43dc                	lw	a5,4(a5)
    2830:	0807f793          	andi	a5,a5,128
    2834:	ef81                	bnez	a5,284c <RCC_GetClocksFreq+0x72>
    2836:	fdc42783          	lw	a5,-36(s0)
    283a:	4398                	lw	a4,0(a5)
    283c:	fe842783          	lw	a5,-24(s0)
    2840:	02f75733          	divu	a4,a4,a5
    2844:	fdc42783          	lw	a5,-36(s0)
    2848:	c3d8                	sw	a4,4(a5)
    284a:	a819                	j	2860 <RCC_GetClocksFreq+0x86>
    284c:	fdc42783          	lw	a5,-36(s0)
    2850:	4398                	lw	a4,0(a5)
    2852:	fe842783          	lw	a5,-24(s0)
    2856:	00f75733          	srl	a4,a4,a5
    285a:	fdc42783          	lw	a5,-36(s0)
    285e:	c3d8                	sw	a4,4(a5)
    2860:	fdc42783          	lw	a5,-36(s0)
    2864:	43d8                	lw	a4,4(a5)
    2866:	fdc42783          	lw	a5,-36(s0)
    286a:	c798                	sw	a4,8(a5)
    286c:	fdc42783          	lw	a5,-36(s0)
    2870:	43d8                	lw	a4,4(a5)
    2872:	fdc42783          	lw	a5,-36(s0)
    2876:	c7d8                	sw	a4,12(a5)
    2878:	0001                	nop
    287a:	5432                	lw	s0,44(sp)
    287c:	6145                	addi	sp,sp,48
    287e:	8082                	ret

00002880 <RCC_AHBPeriphClockCmd>:
    2880:	1101                	addi	sp,sp,-32
    2882:	ce22                	sw	s0,28(sp)
    2884:	1000                	addi	s0,sp,32
    2886:	fea42623          	sw	a0,-20(s0)
    288a:	feb42423          	sw	a1,-24(s0)
    288e:	fe842783          	lw	a5,-24(s0)
    2892:	cb99                	beqz	a5,28a8 <RCC_AHBPeriphClockCmd+0x28>
    2894:	400217b7          	lui	a5,0x40021
    2898:	4bd4                	lw	a3,20(a5)
    289a:	400217b7          	lui	a5,0x40021
    289e:	fec42703          	lw	a4,-20(s0)
    28a2:	8f55                	or	a4,a4,a3
    28a4:	cbd8                	sw	a4,20(a5)
    28a6:	a821                	j	28be <RCC_AHBPeriphClockCmd+0x3e>
    28a8:	400217b7          	lui	a5,0x40021
    28ac:	4bd4                	lw	a3,20(a5)
    28ae:	fec42783          	lw	a5,-20(s0)
    28b2:	fff7c713          	not	a4,a5
    28b6:	400217b7          	lui	a5,0x40021
    28ba:	8f75                	and	a4,a4,a3
    28bc:	cbd8                	sw	a4,20(a5)
    28be:	0001                	nop
    28c0:	4472                	lw	s0,28(sp)
    28c2:	6105                	addi	sp,sp,32
    28c4:	8082                	ret

000028c6 <RCC_APB2PeriphClockCmd>:
    28c6:	1101                	addi	sp,sp,-32
    28c8:	ce22                	sw	s0,28(sp)
    28ca:	1000                	addi	s0,sp,32
    28cc:	fea42623          	sw	a0,-20(s0)
    28d0:	feb42423          	sw	a1,-24(s0)
    28d4:	fe842783          	lw	a5,-24(s0)
    28d8:	cb99                	beqz	a5,28ee <RCC_APB2PeriphClockCmd+0x28>
    28da:	400217b7          	lui	a5,0x40021
    28de:	4f94                	lw	a3,24(a5)
    28e0:	400217b7          	lui	a5,0x40021
    28e4:	fec42703          	lw	a4,-20(s0)
    28e8:	8f55                	or	a4,a4,a3
    28ea:	cf98                	sw	a4,24(a5)
    28ec:	a821                	j	2904 <RCC_APB2PeriphClockCmd+0x3e>
    28ee:	400217b7          	lui	a5,0x40021
    28f2:	4f94                	lw	a3,24(a5)
    28f4:	fec42783          	lw	a5,-20(s0)
    28f8:	fff7c713          	not	a4,a5
    28fc:	400217b7          	lui	a5,0x40021
    2900:	8f75                	and	a4,a4,a3
    2902:	cf98                	sw	a4,24(a5)
    2904:	0001                	nop
    2906:	4472                	lw	s0,28(sp)
    2908:	6105                	addi	sp,sp,32
    290a:	8082                	ret

0000290c <RCC_APB1PeriphClockCmd>:
    290c:	1101                	addi	sp,sp,-32
    290e:	ce22                	sw	s0,28(sp)
    2910:	1000                	addi	s0,sp,32
    2912:	fea42623          	sw	a0,-20(s0)
    2916:	feb42423          	sw	a1,-24(s0)
    291a:	fe842783          	lw	a5,-24(s0)
    291e:	cb99                	beqz	a5,2934 <RCC_APB1PeriphClockCmd+0x28>
    2920:	400217b7          	lui	a5,0x40021
    2924:	4fd4                	lw	a3,28(a5)
    2926:	400217b7          	lui	a5,0x40021
    292a:	fec42703          	lw	a4,-20(s0)
    292e:	8f55                	or	a4,a4,a3
    2930:	cfd8                	sw	a4,28(a5)
    2932:	a821                	j	294a <RCC_APB1PeriphClockCmd+0x3e>
    2934:	400217b7          	lui	a5,0x40021
    2938:	4fd4                	lw	a3,28(a5)
    293a:	fec42783          	lw	a5,-20(s0)
    293e:	fff7c713          	not	a4,a5
    2942:	400217b7          	lui	a5,0x40021
    2946:	8f75                	and	a4,a4,a3
    2948:	cfd8                	sw	a4,28(a5)
    294a:	0001                	nop
    294c:	4472                	lw	s0,28(sp)
    294e:	6105                	addi	sp,sp,32
    2950:	8082                	ret

00002952 <TIM_TimeBaseInit>:
    2952:	7179                	addi	sp,sp,-48
    2954:	d622                	sw	s0,44(sp)
    2956:	1800                	addi	s0,sp,48
    2958:	fca42e23          	sw	a0,-36(s0)
    295c:	fcb42c23          	sw	a1,-40(s0)
    2960:	fe041723          	sh	zero,-18(s0)
    2964:	fdc42783          	lw	a5,-36(s0)
    2968:	239e                	lhu	a5,0(a5)
    296a:	fef41723          	sh	a5,-18(s0)
    296e:	fdc42703          	lw	a4,-36(s0)
    2972:	400137b7          	lui	a5,0x40013
    2976:	c0078793          	addi	a5,a5,-1024 # 40012c00 <_eusrstack+0x2000dc00>
    297a:	00f70863          	beq	a4,a5,298a <TIM_TimeBaseInit+0x38>
    297e:	fdc42703          	lw	a4,-36(s0)
    2982:	400007b7          	lui	a5,0x40000
    2986:	02f71063          	bne	a4,a5,29a6 <TIM_TimeBaseInit+0x54>
    298a:	fee45783          	lhu	a5,-18(s0)
    298e:	f8f7f793          	andi	a5,a5,-113
    2992:	fef41723          	sh	a5,-18(s0)
    2996:	fd842783          	lw	a5,-40(s0)
    299a:	23be                	lhu	a5,2(a5)
    299c:	fee45703          	lhu	a4,-18(s0)
    29a0:	8fd9                	or	a5,a5,a4
    29a2:	fef41723          	sh	a5,-18(s0)
    29a6:	fee45783          	lhu	a5,-18(s0)
    29aa:	cff7f793          	andi	a5,a5,-769
    29ae:	fef41723          	sh	a5,-18(s0)
    29b2:	fd842783          	lw	a5,-40(s0)
    29b6:	23fe                	lhu	a5,6(a5)
    29b8:	fee45703          	lhu	a4,-18(s0)
    29bc:	8fd9                	or	a5,a5,a4
    29be:	fef41723          	sh	a5,-18(s0)
    29c2:	fdc42783          	lw	a5,-36(s0)
    29c6:	fee45703          	lhu	a4,-18(s0)
    29ca:	a39a                	sh	a4,0(a5)
    29cc:	fd842783          	lw	a5,-40(s0)
    29d0:	23da                	lhu	a4,4(a5)
    29d2:	fdc42783          	lw	a5,-36(s0)
    29d6:	b7da                	sh	a4,44(a5)
    29d8:	fd842783          	lw	a5,-40(s0)
    29dc:	239a                	lhu	a4,0(a5)
    29de:	fdc42783          	lw	a5,-36(s0)
    29e2:	b79a                	sh	a4,40(a5)
    29e4:	fdc42703          	lw	a4,-36(s0)
    29e8:	400137b7          	lui	a5,0x40013
    29ec:	c0078793          	addi	a5,a5,-1024 # 40012c00 <_eusrstack+0x2000dc00>
    29f0:	00f70863          	beq	a4,a5,2a00 <TIM_TimeBaseInit+0xae>
    29f4:	fdc42703          	lw	a4,-36(s0)
    29f8:	400007b7          	lui	a5,0x40000
    29fc:	00f71963          	bne	a4,a5,2a0e <TIM_TimeBaseInit+0xbc>
    2a00:	fd842783          	lw	a5,-40(s0)
    2a04:	279c                	lbu	a5,8(a5)
    2a06:	873e                	mv	a4,a5
    2a08:	fdc42783          	lw	a5,-36(s0)
    2a0c:	bb9a                	sh	a4,48(a5)
    2a0e:	fdc42783          	lw	a5,-36(s0)
    2a12:	4705                	li	a4,1
    2a14:	abda                	sh	a4,20(a5)
    2a16:	0001                	nop
    2a18:	5432                	lw	s0,44(sp)
    2a1a:	6145                	addi	sp,sp,48
    2a1c:	8082                	ret

00002a1e <TIM_Cmd>:
    2a1e:	1101                	addi	sp,sp,-32
    2a20:	ce22                	sw	s0,28(sp)
    2a22:	1000                	addi	s0,sp,32
    2a24:	fea42623          	sw	a0,-20(s0)
    2a28:	feb42423          	sw	a1,-24(s0)
    2a2c:	fe842783          	lw	a5,-24(s0)
    2a30:	cf99                	beqz	a5,2a4e <TIM_Cmd+0x30>
    2a32:	fec42783          	lw	a5,-20(s0)
    2a36:	239e                	lhu	a5,0(a5)
    2a38:	07c2                	slli	a5,a5,0x10
    2a3a:	83c1                	srli	a5,a5,0x10
    2a3c:	0017e793          	ori	a5,a5,1
    2a40:	01079713          	slli	a4,a5,0x10
    2a44:	8341                	srli	a4,a4,0x10
    2a46:	fec42783          	lw	a5,-20(s0)
    2a4a:	a39a                	sh	a4,0(a5)
    2a4c:	a829                	j	2a66 <TIM_Cmd+0x48>
    2a4e:	fec42783          	lw	a5,-20(s0)
    2a52:	239e                	lhu	a5,0(a5)
    2a54:	07c2                	slli	a5,a5,0x10
    2a56:	83c1                	srli	a5,a5,0x10
    2a58:	9bf9                	andi	a5,a5,-2
    2a5a:	01079713          	slli	a4,a5,0x10
    2a5e:	8341                	srli	a4,a4,0x10
    2a60:	fec42783          	lw	a5,-20(s0)
    2a64:	a39a                	sh	a4,0(a5)
    2a66:	0001                	nop
    2a68:	4472                	lw	s0,28(sp)
    2a6a:	6105                	addi	sp,sp,32
    2a6c:	8082                	ret

00002a6e <TIM_ITConfig>:
    2a6e:	1101                	addi	sp,sp,-32
    2a70:	ce22                	sw	s0,28(sp)
    2a72:	1000                	addi	s0,sp,32
    2a74:	fea42623          	sw	a0,-20(s0)
    2a78:	87ae                	mv	a5,a1
    2a7a:	fec42223          	sw	a2,-28(s0)
    2a7e:	fef41523          	sh	a5,-22(s0)
    2a82:	fe442783          	lw	a5,-28(s0)
    2a86:	c385                	beqz	a5,2aa6 <TIM_ITConfig+0x38>
    2a88:	fec42783          	lw	a5,-20(s0)
    2a8c:	27de                	lhu	a5,12(a5)
    2a8e:	07c2                	slli	a5,a5,0x10
    2a90:	83c1                	srli	a5,a5,0x10
    2a92:	fea45703          	lhu	a4,-22(s0)
    2a96:	8fd9                	or	a5,a5,a4
    2a98:	01079713          	slli	a4,a5,0x10
    2a9c:	8341                	srli	a4,a4,0x10
    2a9e:	fec42783          	lw	a5,-20(s0)
    2aa2:	a7da                	sh	a4,12(a5)
    2aa4:	a025                	j	2acc <TIM_ITConfig+0x5e>
    2aa6:	fec42783          	lw	a5,-20(s0)
    2aaa:	27de                	lhu	a5,12(a5)
    2aac:	01079713          	slli	a4,a5,0x10
    2ab0:	8341                	srli	a4,a4,0x10
    2ab2:	fea45783          	lhu	a5,-22(s0)
    2ab6:	fff7c793          	not	a5,a5
    2aba:	07c2                	slli	a5,a5,0x10
    2abc:	83c1                	srli	a5,a5,0x10
    2abe:	8ff9                	and	a5,a5,a4
    2ac0:	01079713          	slli	a4,a5,0x10
    2ac4:	8341                	srli	a4,a4,0x10
    2ac6:	fec42783          	lw	a5,-20(s0)
    2aca:	a7da                	sh	a4,12(a5)
    2acc:	0001                	nop
    2ace:	4472                	lw	s0,28(sp)
    2ad0:	6105                	addi	sp,sp,32
    2ad2:	8082                	ret

00002ad4 <TIM_GetITStatus>:
    2ad4:	7179                	addi	sp,sp,-48
    2ad6:	d622                	sw	s0,44(sp)
    2ad8:	1800                	addi	s0,sp,48
    2ada:	fca42e23          	sw	a0,-36(s0)
    2ade:	87ae                	mv	a5,a1
    2ae0:	fcf41d23          	sh	a5,-38(s0)
    2ae4:	fe042623          	sw	zero,-20(s0)
    2ae8:	fe041523          	sh	zero,-22(s0)
    2aec:	fe041423          	sh	zero,-24(s0)
    2af0:	fdc42783          	lw	a5,-36(s0)
    2af4:	2b9e                	lhu	a5,16(a5)
    2af6:	07c2                	slli	a5,a5,0x10
    2af8:	83c1                	srli	a5,a5,0x10
    2afa:	fda45703          	lhu	a4,-38(s0)
    2afe:	8ff9                	and	a5,a5,a4
    2b00:	fef41523          	sh	a5,-22(s0)
    2b04:	fdc42783          	lw	a5,-36(s0)
    2b08:	27de                	lhu	a5,12(a5)
    2b0a:	07c2                	slli	a5,a5,0x10
    2b0c:	83c1                	srli	a5,a5,0x10
    2b0e:	fda45703          	lhu	a4,-38(s0)
    2b12:	8ff9                	and	a5,a5,a4
    2b14:	fef41423          	sh	a5,-24(s0)
    2b18:	fea45783          	lhu	a5,-22(s0)
    2b1c:	cb81                	beqz	a5,2b2c <TIM_GetITStatus+0x58>
    2b1e:	fe845783          	lhu	a5,-24(s0)
    2b22:	c789                	beqz	a5,2b2c <TIM_GetITStatus+0x58>
    2b24:	4785                	li	a5,1
    2b26:	fef42623          	sw	a5,-20(s0)
    2b2a:	a019                	j	2b30 <TIM_GetITStatus+0x5c>
    2b2c:	fe042623          	sw	zero,-20(s0)
    2b30:	fec42783          	lw	a5,-20(s0)
    2b34:	853e                	mv	a0,a5
    2b36:	5432                	lw	s0,44(sp)
    2b38:	6145                	addi	sp,sp,48
    2b3a:	8082                	ret

00002b3c <TIM_ClearITPendingBit>:
    2b3c:	1101                	addi	sp,sp,-32
    2b3e:	ce22                	sw	s0,28(sp)
    2b40:	1000                	addi	s0,sp,32
    2b42:	fea42623          	sw	a0,-20(s0)
    2b46:	87ae                	mv	a5,a1
    2b48:	fef41523          	sh	a5,-22(s0)
    2b4c:	fea45783          	lhu	a5,-22(s0)
    2b50:	fff7c793          	not	a5,a5
    2b54:	01079713          	slli	a4,a5,0x10
    2b58:	8341                	srli	a4,a4,0x10
    2b5a:	fec42783          	lw	a5,-20(s0)
    2b5e:	ab9a                	sh	a4,16(a5)
    2b60:	0001                	nop
    2b62:	4472                	lw	s0,28(sp)
    2b64:	6105                	addi	sp,sp,32
    2b66:	8082                	ret

00002b68 <USART_Init>:
    2b68:	715d                	addi	sp,sp,-80
    2b6a:	c686                	sw	ra,76(sp)
    2b6c:	c4a2                	sw	s0,72(sp)
    2b6e:	0880                	addi	s0,sp,80
    2b70:	faa42e23          	sw	a0,-68(s0)
    2b74:	fab42c23          	sw	a1,-72(s0)
    2b78:	fe042423          	sw	zero,-24(s0)
    2b7c:	fe042623          	sw	zero,-20(s0)
    2b80:	fe042223          	sw	zero,-28(s0)
    2b84:	fe042023          	sw	zero,-32(s0)
    2b88:	fc042e23          	sw	zero,-36(s0)
    2b8c:	fbc42783          	lw	a5,-68(s0)
    2b90:	fcf42e23          	sw	a5,-36(s0)
    2b94:	fbc42783          	lw	a5,-68(s0)
    2b98:	2b9e                	lhu	a5,16(a5)
    2b9a:	07c2                	slli	a5,a5,0x10
    2b9c:	83c1                	srli	a5,a5,0x10
    2b9e:	fef42423          	sw	a5,-24(s0)
    2ba2:	fe842703          	lw	a4,-24(s0)
    2ba6:	67b5                	lui	a5,0xd
    2ba8:	17fd                	addi	a5,a5,-1 # cfff <_data_lma+0x8887>
    2baa:	8ff9                	and	a5,a5,a4
    2bac:	fef42423          	sw	a5,-24(s0)
    2bb0:	fb842783          	lw	a5,-72(s0)
    2bb4:	23fe                	lhu	a5,6(a5)
    2bb6:	873e                	mv	a4,a5
    2bb8:	fe842783          	lw	a5,-24(s0)
    2bbc:	8fd9                	or	a5,a5,a4
    2bbe:	fef42423          	sw	a5,-24(s0)
    2bc2:	fe842783          	lw	a5,-24(s0)
    2bc6:	01079713          	slli	a4,a5,0x10
    2bca:	8341                	srli	a4,a4,0x10
    2bcc:	fbc42783          	lw	a5,-68(s0)
    2bd0:	ab9a                	sh	a4,16(a5)
    2bd2:	fbc42783          	lw	a5,-68(s0)
    2bd6:	27de                	lhu	a5,12(a5)
    2bd8:	07c2                	slli	a5,a5,0x10
    2bda:	83c1                	srli	a5,a5,0x10
    2bdc:	fef42423          	sw	a5,-24(s0)
    2be0:	fe842703          	lw	a4,-24(s0)
    2be4:	67bd                	lui	a5,0xf
    2be6:	9f378793          	addi	a5,a5,-1549 # e9f3 <_data_lma+0xa27b>
    2bea:	8ff9                	and	a5,a5,a4
    2bec:	fef42423          	sw	a5,-24(s0)
    2bf0:	fb842783          	lw	a5,-72(s0)
    2bf4:	23da                	lhu	a4,4(a5)
    2bf6:	fb842783          	lw	a5,-72(s0)
    2bfa:	279e                	lhu	a5,8(a5)
    2bfc:	8fd9                	or	a5,a5,a4
    2bfe:	01079713          	slli	a4,a5,0x10
    2c02:	8341                	srli	a4,a4,0x10
    2c04:	fb842783          	lw	a5,-72(s0)
    2c08:	27be                	lhu	a5,10(a5)
    2c0a:	8fd9                	or	a5,a5,a4
    2c0c:	07c2                	slli	a5,a5,0x10
    2c0e:	83c1                	srli	a5,a5,0x10
    2c10:	873e                	mv	a4,a5
    2c12:	fe842783          	lw	a5,-24(s0)
    2c16:	8fd9                	or	a5,a5,a4
    2c18:	fef42423          	sw	a5,-24(s0)
    2c1c:	fe842783          	lw	a5,-24(s0)
    2c20:	01079713          	slli	a4,a5,0x10
    2c24:	8341                	srli	a4,a4,0x10
    2c26:	fbc42783          	lw	a5,-68(s0)
    2c2a:	a7da                	sh	a4,12(a5)
    2c2c:	fbc42783          	lw	a5,-68(s0)
    2c30:	2bde                	lhu	a5,20(a5)
    2c32:	07c2                	slli	a5,a5,0x10
    2c34:	83c1                	srli	a5,a5,0x10
    2c36:	fef42423          	sw	a5,-24(s0)
    2c3a:	fe842703          	lw	a4,-24(s0)
    2c3e:	67c1                	lui	a5,0x10
    2c40:	cff78793          	addi	a5,a5,-769 # fcff <_data_lma+0xb587>
    2c44:	8ff9                	and	a5,a5,a4
    2c46:	fef42423          	sw	a5,-24(s0)
    2c4a:	fb842783          	lw	a5,-72(s0)
    2c4e:	27de                	lhu	a5,12(a5)
    2c50:	873e                	mv	a4,a5
    2c52:	fe842783          	lw	a5,-24(s0)
    2c56:	8fd9                	or	a5,a5,a4
    2c58:	fef42423          	sw	a5,-24(s0)
    2c5c:	fe842783          	lw	a5,-24(s0)
    2c60:	01079713          	slli	a4,a5,0x10
    2c64:	8341                	srli	a4,a4,0x10
    2c66:	fbc42783          	lw	a5,-68(s0)
    2c6a:	abda                	sh	a4,20(a5)
    2c6c:	fcc40793          	addi	a5,s0,-52
    2c70:	853e                	mv	a0,a5
    2c72:	b69ff0ef          	jal	ra,27da <RCC_GetClocksFreq>
    2c76:	fdc42703          	lw	a4,-36(s0)
    2c7a:	400147b7          	lui	a5,0x40014
    2c7e:	80078793          	addi	a5,a5,-2048 # 40013800 <_eusrstack+0x2000e800>
    2c82:	00f71763          	bne	a4,a5,2c90 <USART_Init+0x128>
    2c86:	fd842783          	lw	a5,-40(s0)
    2c8a:	fef42623          	sw	a5,-20(s0)
    2c8e:	a029                	j	2c98 <USART_Init+0x130>
    2c90:	fd442783          	lw	a5,-44(s0)
    2c94:	fef42623          	sw	a5,-20(s0)
    2c98:	fec42703          	lw	a4,-20(s0)
    2c9c:	87ba                	mv	a5,a4
    2c9e:	0786                	slli	a5,a5,0x1
    2ca0:	97ba                	add	a5,a5,a4
    2ca2:	078e                	slli	a5,a5,0x3
    2ca4:	973e                	add	a4,a4,a5
    2ca6:	fb842783          	lw	a5,-72(s0)
    2caa:	439c                	lw	a5,0(a5)
    2cac:	078a                	slli	a5,a5,0x2
    2cae:	02f757b3          	divu	a5,a4,a5
    2cb2:	fef42223          	sw	a5,-28(s0)
    2cb6:	fe442703          	lw	a4,-28(s0)
    2cba:	06400793          	li	a5,100
    2cbe:	02f757b3          	divu	a5,a4,a5
    2cc2:	0792                	slli	a5,a5,0x4
    2cc4:	fef42423          	sw	a5,-24(s0)
    2cc8:	fe842783          	lw	a5,-24(s0)
    2ccc:	0047d713          	srli	a4,a5,0x4
    2cd0:	06400793          	li	a5,100
    2cd4:	02f707b3          	mul	a5,a4,a5
    2cd8:	fe442703          	lw	a4,-28(s0)
    2cdc:	40f707b3          	sub	a5,a4,a5
    2ce0:	fef42023          	sw	a5,-32(s0)
    2ce4:	fe042783          	lw	a5,-32(s0)
    2ce8:	0792                	slli	a5,a5,0x4
    2cea:	03278713          	addi	a4,a5,50
    2cee:	06400793          	li	a5,100
    2cf2:	02f757b3          	divu	a5,a4,a5
    2cf6:	8bbd                	andi	a5,a5,15
    2cf8:	fe842703          	lw	a4,-24(s0)
    2cfc:	8fd9                	or	a5,a5,a4
    2cfe:	fef42423          	sw	a5,-24(s0)
    2d02:	fe842783          	lw	a5,-24(s0)
    2d06:	01079713          	slli	a4,a5,0x10
    2d0a:	8341                	srli	a4,a4,0x10
    2d0c:	fbc42783          	lw	a5,-68(s0)
    2d10:	a79a                	sh	a4,8(a5)
    2d12:	0001                	nop
    2d14:	40b6                	lw	ra,76(sp)
    2d16:	4426                	lw	s0,72(sp)
    2d18:	6161                	addi	sp,sp,80
    2d1a:	8082                	ret

00002d1c <USART_Cmd>:
    2d1c:	1101                	addi	sp,sp,-32
    2d1e:	ce22                	sw	s0,28(sp)
    2d20:	1000                	addi	s0,sp,32
    2d22:	fea42623          	sw	a0,-20(s0)
    2d26:	feb42423          	sw	a1,-24(s0)
    2d2a:	fe842783          	lw	a5,-24(s0)
    2d2e:	c385                	beqz	a5,2d4e <USART_Cmd+0x32>
    2d30:	fec42783          	lw	a5,-20(s0)
    2d34:	27de                	lhu	a5,12(a5)
    2d36:	01079713          	slli	a4,a5,0x10
    2d3a:	8341                	srli	a4,a4,0x10
    2d3c:	6789                	lui	a5,0x2
    2d3e:	8fd9                	or	a5,a5,a4
    2d40:	01079713          	slli	a4,a5,0x10
    2d44:	8341                	srli	a4,a4,0x10
    2d46:	fec42783          	lw	a5,-20(s0)
    2d4a:	a7da                	sh	a4,12(a5)
    2d4c:	a005                	j	2d6c <USART_Cmd+0x50>
    2d4e:	fec42783          	lw	a5,-20(s0)
    2d52:	27de                	lhu	a5,12(a5)
    2d54:	01079713          	slli	a4,a5,0x10
    2d58:	8341                	srli	a4,a4,0x10
    2d5a:	77f9                	lui	a5,0xffffe
    2d5c:	17fd                	addi	a5,a5,-1 # ffffdfff <_eusrstack+0xdfff8fff>
    2d5e:	8ff9                	and	a5,a5,a4
    2d60:	01079713          	slli	a4,a5,0x10
    2d64:	8341                	srli	a4,a4,0x10
    2d66:	fec42783          	lw	a5,-20(s0)
    2d6a:	a7da                	sh	a4,12(a5)
    2d6c:	0001                	nop
    2d6e:	4472                	lw	s0,28(sp)
    2d70:	6105                	addi	sp,sp,32
    2d72:	8082                	ret

00002d74 <USART_SendData>:
    2d74:	1101                	addi	sp,sp,-32
    2d76:	ce22                	sw	s0,28(sp)
    2d78:	1000                	addi	s0,sp,32
    2d7a:	fea42623          	sw	a0,-20(s0)
    2d7e:	87ae                	mv	a5,a1
    2d80:	fef41523          	sh	a5,-22(s0)
    2d84:	fea45783          	lhu	a5,-22(s0)
    2d88:	1ff7f793          	andi	a5,a5,511
    2d8c:	01079713          	slli	a4,a5,0x10
    2d90:	8341                	srli	a4,a4,0x10
    2d92:	fec42783          	lw	a5,-20(s0)
    2d96:	a3da                	sh	a4,4(a5)
    2d98:	0001                	nop
    2d9a:	4472                	lw	s0,28(sp)
    2d9c:	6105                	addi	sp,sp,32
    2d9e:	8082                	ret

00002da0 <USART_GetFlagStatus>:
    2da0:	7179                	addi	sp,sp,-48
    2da2:	d622                	sw	s0,44(sp)
    2da4:	1800                	addi	s0,sp,48
    2da6:	fca42e23          	sw	a0,-36(s0)
    2daa:	87ae                	mv	a5,a1
    2dac:	fcf41d23          	sh	a5,-38(s0)
    2db0:	fe042623          	sw	zero,-20(s0)
    2db4:	fdc42783          	lw	a5,-36(s0)
    2db8:	239e                	lhu	a5,0(a5)
    2dba:	07c2                	slli	a5,a5,0x10
    2dbc:	83c1                	srli	a5,a5,0x10
    2dbe:	fda45703          	lhu	a4,-38(s0)
    2dc2:	8ff9                	and	a5,a5,a4
    2dc4:	07c2                	slli	a5,a5,0x10
    2dc6:	83c1                	srli	a5,a5,0x10
    2dc8:	c789                	beqz	a5,2dd2 <USART_GetFlagStatus+0x32>
    2dca:	4785                	li	a5,1
    2dcc:	fef42623          	sw	a5,-20(s0)
    2dd0:	a019                	j	2dd6 <USART_GetFlagStatus+0x36>
    2dd2:	fe042623          	sw	zero,-20(s0)
    2dd6:	fec42783          	lw	a5,-20(s0)
    2dda:	853e                	mv	a0,a5
    2ddc:	5432                	lw	s0,44(sp)
    2dde:	6145                	addi	sp,sp,48
    2de0:	8082                	ret

00002de2 <Delay_Init>:
    2de2:	1141                	addi	sp,sp,-16
    2de4:	c622                	sw	s0,12(sp)
    2de6:	0800                	addi	s0,sp,16
    2de8:	200007b7          	lui	a5,0x20000
    2dec:	1a87a703          	lw	a4,424(a5) # 200001a8 <SystemCoreClock>
    2df0:	007a17b7          	lui	a5,0x7a1
    2df4:	20078793          	addi	a5,a5,512 # 7a1200 <_data_lma+0x79ca88>
    2df8:	02f757b3          	divu	a5,a4,a5
    2dfc:	0ff7f713          	zext.b	a4,a5
    2e00:	84e18a23          	sb	a4,-1964(gp) # 200001fc <p_us>
    2e04:	8541c783          	lbu	a5,-1964(gp) # 200001fc <p_us>
    2e08:	873e                	mv	a4,a5
    2e0a:	3e800793          	li	a5,1000
    2e0e:	02f707b3          	mul	a5,a4,a5
    2e12:	01079713          	slli	a4,a5,0x10
    2e16:	8341                	srli	a4,a4,0x10
    2e18:	84e19b23          	sh	a4,-1962(gp) # 200001fe <p_ms>
    2e1c:	0001                	nop
    2e1e:	4432                	lw	s0,12(sp)
    2e20:	0141                	addi	sp,sp,16
    2e22:	8082                	ret

00002e24 <Delay_Us>:
    2e24:	7179                	addi	sp,sp,-48
    2e26:	d622                	sw	s0,44(sp)
    2e28:	1800                	addi	s0,sp,48
    2e2a:	fca42e23          	sw	a0,-36(s0)
    2e2e:	e000f6b7          	lui	a3,0xe000f
    2e32:	42d0                	lw	a2,4(a3)
    2e34:	e000f6b7          	lui	a3,0xe000f
    2e38:	9a79                	andi	a2,a2,-2
    2e3a:	c2d0                	sw	a2,4(a3)
    2e3c:	8541c683          	lbu	a3,-1964(gp) # 200001fc <p_us>
    2e40:	8636                	mv	a2,a3
    2e42:	fdc42683          	lw	a3,-36(s0)
    2e46:	02c686b3          	mul	a3,a3,a2
    2e4a:	fed42623          	sw	a3,-20(s0)
    2e4e:	e000f6b7          	lui	a3,0xe000f
    2e52:	fec42603          	lw	a2,-20(s0)
    2e56:	8732                	mv	a4,a2
    2e58:	4781                	li	a5,0
    2e5a:	ca98                	sw	a4,16(a3)
    2e5c:	cadc                	sw	a5,20(a3)
    2e5e:	e000f7b7          	lui	a5,0xe000f
    2e62:	4398                	lw	a4,0(a5)
    2e64:	e000f7b7          	lui	a5,0xe000f
    2e68:	01076713          	ori	a4,a4,16
    2e6c:	c398                	sw	a4,0(a5)
    2e6e:	e000f7b7          	lui	a5,0xe000f
    2e72:	4398                	lw	a4,0(a5)
    2e74:	e000f7b7          	lui	a5,0xe000f
    2e78:	02176713          	ori	a4,a4,33
    2e7c:	c398                	sw	a4,0(a5)
    2e7e:	0001                	nop
    2e80:	e000f7b7          	lui	a5,0xe000f
    2e84:	43dc                	lw	a5,4(a5)
    2e86:	0017f713          	andi	a4,a5,1
    2e8a:	4785                	li	a5,1
    2e8c:	fef71ae3          	bne	a4,a5,2e80 <Delay_Us+0x5c>
    2e90:	e000f7b7          	lui	a5,0xe000f
    2e94:	4398                	lw	a4,0(a5)
    2e96:	e000f7b7          	lui	a5,0xe000f
    2e9a:	9b79                	andi	a4,a4,-2
    2e9c:	c398                	sw	a4,0(a5)
    2e9e:	0001                	nop
    2ea0:	5432                	lw	s0,44(sp)
    2ea2:	6145                	addi	sp,sp,48
    2ea4:	8082                	ret

00002ea6 <Delay_Ms>:
    2ea6:	7179                	addi	sp,sp,-48
    2ea8:	d622                	sw	s0,44(sp)
    2eaa:	1800                	addi	s0,sp,48
    2eac:	fca42e23          	sw	a0,-36(s0)
    2eb0:	e000f6b7          	lui	a3,0xe000f
    2eb4:	42d0                	lw	a2,4(a3)
    2eb6:	e000f6b7          	lui	a3,0xe000f
    2eba:	9a79                	andi	a2,a2,-2
    2ebc:	c2d0                	sw	a2,4(a3)
    2ebe:	8561d683          	lhu	a3,-1962(gp) # 200001fe <p_ms>
    2ec2:	8636                	mv	a2,a3
    2ec4:	fdc42683          	lw	a3,-36(s0)
    2ec8:	02c686b3          	mul	a3,a3,a2
    2ecc:	fed42623          	sw	a3,-20(s0)
    2ed0:	e000f6b7          	lui	a3,0xe000f
    2ed4:	fec42603          	lw	a2,-20(s0)
    2ed8:	8732                	mv	a4,a2
    2eda:	4781                	li	a5,0
    2edc:	ca98                	sw	a4,16(a3)
    2ede:	cadc                	sw	a5,20(a3)
    2ee0:	e000f7b7          	lui	a5,0xe000f
    2ee4:	4398                	lw	a4,0(a5)
    2ee6:	e000f7b7          	lui	a5,0xe000f
    2eea:	01076713          	ori	a4,a4,16
    2eee:	c398                	sw	a4,0(a5)
    2ef0:	e000f7b7          	lui	a5,0xe000f
    2ef4:	4398                	lw	a4,0(a5)
    2ef6:	e000f7b7          	lui	a5,0xe000f
    2efa:	02176713          	ori	a4,a4,33
    2efe:	c398                	sw	a4,0(a5)
    2f00:	0001                	nop
    2f02:	e000f7b7          	lui	a5,0xe000f
    2f06:	43dc                	lw	a5,4(a5)
    2f08:	0017f713          	andi	a4,a5,1
    2f0c:	4785                	li	a5,1
    2f0e:	fef71ae3          	bne	a4,a5,2f02 <Delay_Ms+0x5c>
    2f12:	e000f7b7          	lui	a5,0xe000f
    2f16:	4398                	lw	a4,0(a5)
    2f18:	e000f7b7          	lui	a5,0xe000f
    2f1c:	9b79                	andi	a4,a4,-2
    2f1e:	c398                	sw	a4,0(a5)
    2f20:	0001                	nop
    2f22:	5432                	lw	s0,44(sp)
    2f24:	6145                	addi	sp,sp,48
    2f26:	8082                	ret

00002f28 <USART_Printf_Init>:
    2f28:	7139                	addi	sp,sp,-64
    2f2a:	de06                	sw	ra,60(sp)
    2f2c:	dc22                	sw	s0,56(sp)
    2f2e:	0080                	addi	s0,sp,64
    2f30:	fca42623          	sw	a0,-52(s0)
    2f34:	4585                	li	a1,1
    2f36:	6791                	lui	a5,0x4
    2f38:	00878513          	addi	a0,a5,8 # 4008 <_printf_common+0xcc>
    2f3c:	98bff0ef          	jal	ra,28c6 <RCC_APB2PeriphClockCmd>
    2f40:	40000793          	li	a5,1024
    2f44:	fef42223          	sw	a5,-28(s0)
    2f48:	4785                	li	a5,1
    2f4a:	fef42423          	sw	a5,-24(s0)
    2f4e:	47e1                	li	a5,24
    2f50:	fef42623          	sw	a5,-20(s0)
    2f54:	fe440793          	addi	a5,s0,-28
    2f58:	85be                	mv	a1,a5
    2f5a:	400117b7          	lui	a5,0x40011
    2f5e:	c0078513          	addi	a0,a5,-1024 # 40010c00 <_eusrstack+0x2000bc00>
    2f62:	888ff0ef          	jal	ra,1fea <GPIO_Init>
    2f66:	fcc42783          	lw	a5,-52(s0)
    2f6a:	fcf42a23          	sw	a5,-44(s0)
    2f6e:	fc041c23          	sh	zero,-40(s0)
    2f72:	fc041d23          	sh	zero,-38(s0)
    2f76:	fc041e23          	sh	zero,-36(s0)
    2f7a:	fe041023          	sh	zero,-32(s0)
    2f7e:	47a1                	li	a5,8
    2f80:	fcf41f23          	sh	a5,-34(s0)
    2f84:	fd440793          	addi	a5,s0,-44
    2f88:	85be                	mv	a1,a5
    2f8a:	400147b7          	lui	a5,0x40014
    2f8e:	80078513          	addi	a0,a5,-2048 # 40013800 <_eusrstack+0x2000e800>
    2f92:	bd7ff0ef          	jal	ra,2b68 <USART_Init>
    2f96:	4585                	li	a1,1
    2f98:	400147b7          	lui	a5,0x40014
    2f9c:	80078513          	addi	a0,a5,-2048 # 40013800 <_eusrstack+0x2000e800>
    2fa0:	3bb5                	jal	2d1c <USART_Cmd>
    2fa2:	0001                	nop
    2fa4:	50f2                	lw	ra,60(sp)
    2fa6:	5462                	lw	s0,56(sp)
    2fa8:	6121                	addi	sp,sp,64
    2faa:	8082                	ret

00002fac <_write>:
    2fac:	7179                	addi	sp,sp,-48
    2fae:	d606                	sw	ra,44(sp)
    2fb0:	d422                	sw	s0,40(sp)
    2fb2:	1800                	addi	s0,sp,48
    2fb4:	fca42e23          	sw	a0,-36(s0)
    2fb8:	fcb42c23          	sw	a1,-40(s0)
    2fbc:	fcc42a23          	sw	a2,-44(s0)
    2fc0:	fe042623          	sw	zero,-20(s0)
    2fc4:	fe042623          	sw	zero,-20(s0)
    2fc8:	a081                	j	3008 <_write+0x5c>
    2fca:	0001                	nop
    2fcc:	04000593          	li	a1,64
    2fd0:	400147b7          	lui	a5,0x40014
    2fd4:	80078513          	addi	a0,a5,-2048 # 40013800 <_eusrstack+0x2000e800>
    2fd8:	33e1                	jal	2da0 <USART_GetFlagStatus>
    2fda:	87aa                	mv	a5,a0
    2fdc:	dbe5                	beqz	a5,2fcc <_write+0x20>
    2fde:	fd842783          	lw	a5,-40(s0)
    2fe2:	00178713          	addi	a4,a5,1
    2fe6:	fce42c23          	sw	a4,-40(s0)
    2fea:	00078783          	lb	a5,0(a5)
    2fee:	07c2                	slli	a5,a5,0x10
    2ff0:	83c1                	srli	a5,a5,0x10
    2ff2:	85be                	mv	a1,a5
    2ff4:	400147b7          	lui	a5,0x40014
    2ff8:	80078513          	addi	a0,a5,-2048 # 40013800 <_eusrstack+0x2000e800>
    2ffc:	3ba5                	jal	2d74 <USART_SendData>
    2ffe:	fec42783          	lw	a5,-20(s0)
    3002:	0785                	addi	a5,a5,1
    3004:	fef42623          	sw	a5,-20(s0)
    3008:	fec42703          	lw	a4,-20(s0)
    300c:	fd442783          	lw	a5,-44(s0)
    3010:	faf74de3          	blt	a4,a5,2fca <_write+0x1e>
    3014:	fd442783          	lw	a5,-44(s0)
    3018:	853e                	mv	a0,a5
    301a:	50b2                	lw	ra,44(sp)
    301c:	5422                	lw	s0,40(sp)
    301e:	6145                	addi	sp,sp,48
    3020:	8082                	ret

00003022 <_sbrk>:
    3022:	1101                	addi	sp,sp,-32
    3024:	ce22                	sw	s0,28(sp)
    3026:	1000                	addi	s0,sp,32
    3028:	fea42623          	sw	a0,-20(s0)
    302c:	8101a703          	lw	a4,-2032(gp) # 200001b8 <curbrk.0>
    3030:	fec42783          	lw	a5,-20(s0)
    3034:	973e                	add	a4,a4,a5
    3036:	97c18793          	addi	a5,gp,-1668 # 20000324 <_ebss>
    303a:	00f76d63          	bltu	a4,a5,3054 <_sbrk+0x32>
    303e:	8101a703          	lw	a4,-2032(gp) # 200001b8 <curbrk.0>
    3042:	fec42783          	lw	a5,-20(s0)
    3046:	973e                	add	a4,a4,a5
    3048:	200057b7          	lui	a5,0x20005
    304c:	80078793          	addi	a5,a5,-2048 # 20004800 <_heap_end>
    3050:	00e7f463          	bgeu	a5,a4,3058 <_sbrk+0x36>
    3054:	57fd                	li	a5,-1
    3056:	a839                	j	3074 <_sbrk+0x52>
    3058:	8101a703          	lw	a4,-2032(gp) # 200001b8 <curbrk.0>
    305c:	fec42783          	lw	a5,-20(s0)
    3060:	973e                	add	a4,a4,a5
    3062:	80e1a823          	sw	a4,-2032(gp) # 200001b8 <curbrk.0>
    3066:	8101a703          	lw	a4,-2032(gp) # 200001b8 <curbrk.0>
    306a:	fec42783          	lw	a5,-20(s0)
    306e:	40f007b3          	neg	a5,a5
    3072:	97ba                	add	a5,a5,a4
    3074:	853e                	mv	a0,a5
    3076:	4472                	lw	s0,28(sp)
    3078:	6105                	addi	sp,sp,32
    307a:	8082                	ret

0000307c <iprintf>:
    307c:	715d                	addi	sp,sp,-80
    307e:	d422                	sw	s0,40(sp)
    3080:	d606                	sw	ra,44(sp)
    3082:	842a                	mv	s0,a0
    3084:	da2e                	sw	a1,52(sp)
    3086:	dc32                	sw	a2,56(sp)
    3088:	de36                	sw	a3,60(sp)
    308a:	c0ba                	sw	a4,64(sp)
    308c:	c2be                	sw	a5,68(sp)
    308e:	c4c2                	sw	a6,72(sp)
    3090:	c6c6                	sw	a7,76(sp)
    3092:	8141a503          	lw	a0,-2028(gp) # 200001bc <_impure_ptr>
    3096:	c511                	beqz	a0,30a2 <iprintf+0x26>
    3098:	4d1c                	lw	a5,24(a0)
    309a:	e781                	bnez	a5,30a2 <iprintf+0x26>
    309c:	c62a                	sw	a0,12(sp)
    309e:	2b91                	jal	35f2 <__sinit>
    30a0:	4532                	lw	a0,12(sp)
    30a2:	450c                	lw	a1,8(a0)
    30a4:	1854                	addi	a3,sp,52
    30a6:	8622                	mv	a2,s0
    30a8:	ce36                	sw	a3,28(sp)
    30aa:	211000ef          	jal	ra,3aba <_vfiprintf_r>
    30ae:	50b2                	lw	ra,44(sp)
    30b0:	5422                	lw	s0,40(sp)
    30b2:	6161                	addi	sp,sp,80
    30b4:	8082                	ret

000030b6 <_puts_r>:
    30b6:	1101                	addi	sp,sp,-32
    30b8:	ca26                	sw	s1,20(sp)
    30ba:	ce06                	sw	ra,28(sp)
    30bc:	cc22                	sw	s0,24(sp)
    30be:	c84a                	sw	s2,16(sp)
    30c0:	c64e                	sw	s3,12(sp)
    30c2:	c452                	sw	s4,8(sp)
    30c4:	84aa                	mv	s1,a0
    30c6:	e119                	bnez	a0,30cc <_puts_r+0x16>
    30c8:	451c                	lw	a5,8(a0)
    30ca:	9002                	ebreak
    30cc:	4d1c                	lw	a5,24(a0)
    30ce:	892e                	mv	s2,a1
    30d0:	e3ad                	bnez	a5,3132 <_puts_r+0x7c>
    30d2:	2305                	jal	35f2 <__sinit>
    30d4:	4c9c                	lw	a5,24(s1)
    30d6:	4480                	lw	s0,8(s1)
    30d8:	cfb9                	beqz	a5,3136 <_puts_r+0x80>
    30da:	00001797          	auipc	a5,0x1
    30de:	5ea78793          	addi	a5,a5,1514 # 46c4 <__sf_fake_stdin>
    30e2:	04f41d63          	bne	s0,a5,313c <_puts_r+0x86>
    30e6:	40c0                	lw	s0,4(s1)
    30e8:	507c                	lw	a5,100(s0)
    30ea:	8b85                	andi	a5,a5,1
    30ec:	e799                	bnez	a5,30fa <_puts_r+0x44>
    30ee:	245e                	lhu	a5,12(s0)
    30f0:	2007f793          	andi	a5,a5,512
    30f4:	e399                	bnez	a5,30fa <_puts_r+0x44>
    30f6:	4c28                	lw	a0,88(s0)
    30f8:	2d8d                	jal	376a <__retarget_lock_acquire_recursive>
    30fa:	245e                	lhu	a5,12(s0)
    30fc:	8ba1                	andi	a5,a5,8
    30fe:	c399                	beqz	a5,3104 <_puts_r+0x4e>
    3100:	481c                	lw	a5,16(s0)
    3102:	e3d5                	bnez	a5,31a6 <_puts_r+0xf0>
    3104:	85a2                	mv	a1,s0
    3106:	8526                	mv	a0,s1
    3108:	2a9d                	jal	327e <__swsetup_r>
    310a:	cd51                	beqz	a0,31a6 <_puts_r+0xf0>
    310c:	54fd                	li	s1,-1
    310e:	507c                	lw	a5,100(s0)
    3110:	8b85                	andi	a5,a5,1
    3112:	e799                	bnez	a5,3120 <_puts_r+0x6a>
    3114:	245e                	lhu	a5,12(s0)
    3116:	2007f793          	andi	a5,a5,512
    311a:	e399                	bnez	a5,3120 <_puts_r+0x6a>
    311c:	4c28                	lw	a0,88(s0)
    311e:	25b9                	jal	376c <__retarget_lock_release_recursive>
    3120:	40f2                	lw	ra,28(sp)
    3122:	4462                	lw	s0,24(sp)
    3124:	4942                	lw	s2,16(sp)
    3126:	49b2                	lw	s3,12(sp)
    3128:	4a22                	lw	s4,8(sp)
    312a:	8526                	mv	a0,s1
    312c:	44d2                	lw	s1,20(sp)
    312e:	6105                	addi	sp,sp,32
    3130:	8082                	ret
    3132:	4500                	lw	s0,8(a0)
    3134:	b75d                	j	30da <_puts_r+0x24>
    3136:	8526                	mv	a0,s1
    3138:	296d                	jal	35f2 <__sinit>
    313a:	b745                	j	30da <_puts_r+0x24>
    313c:	00001797          	auipc	a5,0x1
    3140:	56878793          	addi	a5,a5,1384 # 46a4 <__sf_fake_stdout>
    3144:	00f41463          	bne	s0,a5,314c <_puts_r+0x96>
    3148:	4480                	lw	s0,8(s1)
    314a:	bf79                	j	30e8 <_puts_r+0x32>
    314c:	00001797          	auipc	a5,0x1
    3150:	53878793          	addi	a5,a5,1336 # 4684 <__sf_fake_stderr>
    3154:	f8f41ae3          	bne	s0,a5,30e8 <_puts_r+0x32>
    3158:	44c0                	lw	s0,12(s1)
    315a:	b779                	j	30e8 <_puts_r+0x32>
    315c:	c41c                	sw	a5,8(s0)
    315e:	0905                	addi	s2,s2,1
    3160:	0207c863          	bltz	a5,3190 <_puts_r+0xda>
    3164:	401c                	lw	a5,0(s0)
    3166:	00178713          	addi	a4,a5,1
    316a:	c018                	sw	a4,0(s0)
    316c:	a38c                	sb	a1,0(a5)
    316e:	441c                	lw	a5,8(s0)
    3170:	00094583          	lbu	a1,0(s2)
    3174:	17fd                	addi	a5,a5,-1
    3176:	f1fd                	bnez	a1,315c <_puts_r+0xa6>
    3178:	c41c                	sw	a5,8(s0)
    317a:	0207d963          	bgez	a5,31ac <_puts_r+0xf6>
    317e:	8622                	mv	a2,s0
    3180:	45a9                	li	a1,10
    3182:	8526                	mv	a0,s1
    3184:	283d                	jal	31c2 <__swbuf_r>
    3186:	57fd                	li	a5,-1
    3188:	f8f502e3          	beq	a0,a5,310c <_puts_r+0x56>
    318c:	44a9                	li	s1,10
    318e:	b741                	j	310e <_puts_r+0x58>
    3190:	4c18                	lw	a4,24(s0)
    3192:	00e7c463          	blt	a5,a4,319a <_puts_r+0xe4>
    3196:	fd4597e3          	bne	a1,s4,3164 <_puts_r+0xae>
    319a:	8622                	mv	a2,s0
    319c:	8526                	mv	a0,s1
    319e:	2015                	jal	31c2 <__swbuf_r>
    31a0:	fd3517e3          	bne	a0,s3,316e <_puts_r+0xb8>
    31a4:	b7a5                	j	310c <_puts_r+0x56>
    31a6:	59fd                	li	s3,-1
    31a8:	4a29                	li	s4,10
    31aa:	b7d1                	j	316e <_puts_r+0xb8>
    31ac:	401c                	lw	a5,0(s0)
    31ae:	00178713          	addi	a4,a5,1
    31b2:	c018                	sw	a4,0(s0)
    31b4:	4729                	li	a4,10
    31b6:	a398                	sb	a4,0(a5)
    31b8:	bfd1                	j	318c <_puts_r+0xd6>

000031ba <puts>:
    31ba:	85aa                	mv	a1,a0
    31bc:	8141a503          	lw	a0,-2028(gp) # 200001bc <_impure_ptr>
    31c0:	bddd                	j	30b6 <_puts_r>

000031c2 <__swbuf_r>:
    31c2:	1101                	addi	sp,sp,-32
    31c4:	cc22                	sw	s0,24(sp)
    31c6:	ca26                	sw	s1,20(sp)
    31c8:	c84a                	sw	s2,16(sp)
    31ca:	ce06                	sw	ra,28(sp)
    31cc:	c64e                	sw	s3,12(sp)
    31ce:	84aa                	mv	s1,a0
    31d0:	892e                	mv	s2,a1
    31d2:	8432                	mv	s0,a2
    31d4:	c501                	beqz	a0,31dc <__swbuf_r+0x1a>
    31d6:	4d1c                	lw	a5,24(a0)
    31d8:	e391                	bnez	a5,31dc <__swbuf_r+0x1a>
    31da:	2921                	jal	35f2 <__sinit>
    31dc:	00001797          	auipc	a5,0x1
    31e0:	4e878793          	addi	a5,a5,1256 # 46c4 <__sf_fake_stdin>
    31e4:	02f41763          	bne	s0,a5,3212 <__swbuf_r+0x50>
    31e8:	40c0                	lw	s0,4(s1)
    31ea:	4c1c                	lw	a5,24(s0)
    31ec:	c41c                	sw	a5,8(s0)
    31ee:	245e                	lhu	a5,12(s0)
    31f0:	8ba1                	andi	a5,a5,8
    31f2:	c399                	beqz	a5,31f8 <__swbuf_r+0x36>
    31f4:	481c                	lw	a5,16(s0)
    31f6:	ef95                	bnez	a5,3232 <__swbuf_r+0x70>
    31f8:	85a2                	mv	a1,s0
    31fa:	8526                	mv	a0,s1
    31fc:	2049                	jal	327e <__swsetup_r>
    31fe:	c915                	beqz	a0,3232 <__swbuf_r+0x70>
    3200:	597d                	li	s2,-1
    3202:	40f2                	lw	ra,28(sp)
    3204:	4462                	lw	s0,24(sp)
    3206:	44d2                	lw	s1,20(sp)
    3208:	49b2                	lw	s3,12(sp)
    320a:	854a                	mv	a0,s2
    320c:	4942                	lw	s2,16(sp)
    320e:	6105                	addi	sp,sp,32
    3210:	8082                	ret
    3212:	00001797          	auipc	a5,0x1
    3216:	49278793          	addi	a5,a5,1170 # 46a4 <__sf_fake_stdout>
    321a:	00f41463          	bne	s0,a5,3222 <__swbuf_r+0x60>
    321e:	4480                	lw	s0,8(s1)
    3220:	b7e9                	j	31ea <__swbuf_r+0x28>
    3222:	00001797          	auipc	a5,0x1
    3226:	46278793          	addi	a5,a5,1122 # 4684 <__sf_fake_stderr>
    322a:	fcf410e3          	bne	s0,a5,31ea <__swbuf_r+0x28>
    322e:	44c0                	lw	s0,12(s1)
    3230:	bf6d                	j	31ea <__swbuf_r+0x28>
    3232:	481c                	lw	a5,16(s0)
    3234:	4008                	lw	a0,0(s0)
    3236:	0ff97993          	zext.b	s3,s2
    323a:	0ff97913          	zext.b	s2,s2
    323e:	8d1d                	sub	a0,a0,a5
    3240:	485c                	lw	a5,20(s0)
    3242:	00f54663          	blt	a0,a5,324e <__swbuf_r+0x8c>
    3246:	85a2                	mv	a1,s0
    3248:	8526                	mv	a0,s1
    324a:	2c91                	jal	349e <_fflush_r>
    324c:	f955                	bnez	a0,3200 <__swbuf_r+0x3e>
    324e:	441c                	lw	a5,8(s0)
    3250:	0505                	addi	a0,a0,1 # 10000001 <_data_lma+0xfffb889>
    3252:	17fd                	addi	a5,a5,-1
    3254:	c41c                	sw	a5,8(s0)
    3256:	401c                	lw	a5,0(s0)
    3258:	00178713          	addi	a4,a5,1
    325c:	c018                	sw	a4,0(s0)
    325e:	01378023          	sb	s3,0(a5)
    3262:	485c                	lw	a5,20(s0)
    3264:	00a78863          	beq	a5,a0,3274 <__swbuf_r+0xb2>
    3268:	245e                	lhu	a5,12(s0)
    326a:	8b85                	andi	a5,a5,1
    326c:	dbd9                	beqz	a5,3202 <__swbuf_r+0x40>
    326e:	47a9                	li	a5,10
    3270:	f8f919e3          	bne	s2,a5,3202 <__swbuf_r+0x40>
    3274:	85a2                	mv	a1,s0
    3276:	8526                	mv	a0,s1
    3278:	241d                	jal	349e <_fflush_r>
    327a:	d541                	beqz	a0,3202 <__swbuf_r+0x40>
    327c:	b751                	j	3200 <__swbuf_r+0x3e>

0000327e <__swsetup_r>:
    327e:	1141                	addi	sp,sp,-16
    3280:	c422                	sw	s0,8(sp)
    3282:	c226                	sw	s1,4(sp)
    3284:	c04a                	sw	s2,0(sp)
    3286:	c606                	sw	ra,12(sp)
    3288:	8141a483          	lw	s1,-2028(gp) # 200001bc <_impure_ptr>
    328c:	892a                	mv	s2,a0
    328e:	842e                	mv	s0,a1
    3290:	c489                	beqz	s1,329a <__swsetup_r+0x1c>
    3292:	4c9c                	lw	a5,24(s1)
    3294:	e399                	bnez	a5,329a <__swsetup_r+0x1c>
    3296:	8526                	mv	a0,s1
    3298:	2ea9                	jal	35f2 <__sinit>
    329a:	00001797          	auipc	a5,0x1
    329e:	42a78793          	addi	a5,a5,1066 # 46c4 <__sf_fake_stdin>
    32a2:	02f41363          	bne	s0,a5,32c8 <__swsetup_r+0x4a>
    32a6:	40c0                	lw	s0,4(s1)
    32a8:	00c41783          	lh	a5,12(s0)
    32ac:	0087f713          	andi	a4,a5,8
    32b0:	e725                	bnez	a4,3318 <__swsetup_r+0x9a>
    32b2:	0107f713          	andi	a4,a5,16
    32b6:	eb0d                	bnez	a4,32e8 <__swsetup_r+0x6a>
    32b8:	4725                	li	a4,9
    32ba:	00e92023          	sw	a4,0(s2)
    32be:	0407e793          	ori	a5,a5,64
    32c2:	a45e                	sh	a5,12(s0)
    32c4:	557d                	li	a0,-1
    32c6:	a071                	j	3352 <__swsetup_r+0xd4>
    32c8:	00001797          	auipc	a5,0x1
    32cc:	3dc78793          	addi	a5,a5,988 # 46a4 <__sf_fake_stdout>
    32d0:	00f41463          	bne	s0,a5,32d8 <__swsetup_r+0x5a>
    32d4:	4480                	lw	s0,8(s1)
    32d6:	bfc9                	j	32a8 <__swsetup_r+0x2a>
    32d8:	00001797          	auipc	a5,0x1
    32dc:	3ac78793          	addi	a5,a5,940 # 4684 <__sf_fake_stderr>
    32e0:	fcf414e3          	bne	s0,a5,32a8 <__swsetup_r+0x2a>
    32e4:	44c0                	lw	s0,12(s1)
    32e6:	b7c9                	j	32a8 <__swsetup_r+0x2a>
    32e8:	8b91                	andi	a5,a5,4
    32ea:	c39d                	beqz	a5,3310 <__swsetup_r+0x92>
    32ec:	584c                	lw	a1,52(s0)
    32ee:	c989                	beqz	a1,3300 <__swsetup_r+0x82>
    32f0:	04440793          	addi	a5,s0,68
    32f4:	00f58463          	beq	a1,a5,32fc <__swsetup_r+0x7e>
    32f8:	854a                	mv	a0,s2
    32fa:	2bb9                	jal	3858 <_free_r>
    32fc:	02042a23          	sw	zero,52(s0)
    3300:	245e                	lhu	a5,12(s0)
    3302:	00042223          	sw	zero,4(s0)
    3306:	fdb7f793          	andi	a5,a5,-37
    330a:	a45e                	sh	a5,12(s0)
    330c:	481c                	lw	a5,16(s0)
    330e:	c01c                	sw	a5,0(s0)
    3310:	245e                	lhu	a5,12(s0)
    3312:	0087e793          	ori	a5,a5,8
    3316:	a45e                	sh	a5,12(s0)
    3318:	481c                	lw	a5,16(s0)
    331a:	eb99                	bnez	a5,3330 <__swsetup_r+0xb2>
    331c:	245e                	lhu	a5,12(s0)
    331e:	20000713          	li	a4,512
    3322:	2807f793          	andi	a5,a5,640
    3326:	00e78563          	beq	a5,a4,3330 <__swsetup_r+0xb2>
    332a:	85a2                	mv	a1,s0
    332c:	854a                	mv	a0,s2
    332e:	2961                	jal	37c6 <__smakebuf_r>
    3330:	00c41783          	lh	a5,12(s0)
    3334:	0017f713          	andi	a4,a5,1
    3338:	c31d                	beqz	a4,335e <__swsetup_r+0xe0>
    333a:	4858                	lw	a4,20(s0)
    333c:	00042423          	sw	zero,8(s0)
    3340:	40e00733          	neg	a4,a4
    3344:	cc18                	sw	a4,24(s0)
    3346:	4818                	lw	a4,16(s0)
    3348:	4501                	li	a0,0
    334a:	e701                	bnez	a4,3352 <__swsetup_r+0xd4>
    334c:	0807f713          	andi	a4,a5,128
    3350:	f73d                	bnez	a4,32be <__swsetup_r+0x40>
    3352:	40b2                	lw	ra,12(sp)
    3354:	4422                	lw	s0,8(sp)
    3356:	4492                	lw	s1,4(sp)
    3358:	4902                	lw	s2,0(sp)
    335a:	0141                	addi	sp,sp,16
    335c:	8082                	ret
    335e:	0027f713          	andi	a4,a5,2
    3362:	4681                	li	a3,0
    3364:	e311                	bnez	a4,3368 <__swsetup_r+0xea>
    3366:	4854                	lw	a3,20(s0)
    3368:	c414                	sw	a3,8(s0)
    336a:	bff1                	j	3346 <__swsetup_r+0xc8>

0000336c <__sflush_r>:
    336c:	00c59783          	lh	a5,12(a1)
    3370:	1101                	addi	sp,sp,-32
    3372:	cc22                	sw	s0,24(sp)
    3374:	ca26                	sw	s1,20(sp)
    3376:	ce06                	sw	ra,28(sp)
    3378:	c84a                	sw	s2,16(sp)
    337a:	c64e                	sw	s3,12(sp)
    337c:	0087f713          	andi	a4,a5,8
    3380:	84aa                	mv	s1,a0
    3382:	842e                	mv	s0,a1
    3384:	e379                	bnez	a4,344a <__sflush_r+0xde>
    3386:	41d8                	lw	a4,4(a1)
    3388:	00e04563          	bgtz	a4,3392 <__sflush_r+0x26>
    338c:	41b8                	lw	a4,64(a1)
    338e:	08e05663          	blez	a4,341a <__sflush_r+0xae>
    3392:	5458                	lw	a4,44(s0)
    3394:	c359                	beqz	a4,341a <__sflush_r+0xae>
    3396:	83b1                	srli	a5,a5,0xc
    3398:	0004a903          	lw	s2,0(s1)
    339c:	8b85                	andi	a5,a5,1
    339e:	0004a023          	sw	zero,0(s1)
    33a2:	500c                	lw	a1,32(s0)
    33a4:	cba9                	beqz	a5,33f6 <__sflush_r+0x8a>
    33a6:	4870                	lw	a2,84(s0)
    33a8:	245e                	lhu	a5,12(s0)
    33aa:	8b91                	andi	a5,a5,4
    33ac:	c799                	beqz	a5,33ba <__sflush_r+0x4e>
    33ae:	405c                	lw	a5,4(s0)
    33b0:	8e1d                	sub	a2,a2,a5
    33b2:	585c                	lw	a5,52(s0)
    33b4:	c399                	beqz	a5,33ba <__sflush_r+0x4e>
    33b6:	403c                	lw	a5,64(s0)
    33b8:	8e1d                	sub	a2,a2,a5
    33ba:	545c                	lw	a5,44(s0)
    33bc:	500c                	lw	a1,32(s0)
    33be:	4681                	li	a3,0
    33c0:	8526                	mv	a0,s1
    33c2:	9782                	jalr	a5
    33c4:	57fd                	li	a5,-1
    33c6:	04f50c63          	beq	a0,a5,341e <__sflush_r+0xb2>
    33ca:	481c                	lw	a5,16(s0)
    33cc:	6705                	lui	a4,0x1
    33ce:	00042223          	sw	zero,4(s0)
    33d2:	c01c                	sw	a5,0(s0)
    33d4:	245e                	lhu	a5,12(s0)
    33d6:	8ff9                	and	a5,a5,a4
    33d8:	c391                	beqz	a5,33dc <__sflush_r+0x70>
    33da:	c868                	sw	a0,84(s0)
    33dc:	584c                	lw	a1,52(s0)
    33de:	0124a023          	sw	s2,0(s1)
    33e2:	cd85                	beqz	a1,341a <__sflush_r+0xae>
    33e4:	04440793          	addi	a5,s0,68
    33e8:	00f58463          	beq	a1,a5,33f0 <__sflush_r+0x84>
    33ec:	8526                	mv	a0,s1
    33ee:	21ad                	jal	3858 <_free_r>
    33f0:	02042a23          	sw	zero,52(s0)
    33f4:	a01d                	j	341a <__sflush_r+0xae>
    33f6:	4601                	li	a2,0
    33f8:	4685                	li	a3,1
    33fa:	8526                	mv	a0,s1
    33fc:	9702                	jalr	a4
    33fe:	57fd                	li	a5,-1
    3400:	862a                	mv	a2,a0
    3402:	faf513e3          	bne	a0,a5,33a8 <__sflush_r+0x3c>
    3406:	409c                	lw	a5,0(s1)
    3408:	d3c5                	beqz	a5,33a8 <__sflush_r+0x3c>
    340a:	4775                	li	a4,29
    340c:	00e78563          	beq	a5,a4,3416 <__sflush_r+0xaa>
    3410:	4759                	li	a4,22
    3412:	06e79563          	bne	a5,a4,347c <__sflush_r+0x110>
    3416:	0124a023          	sw	s2,0(s1)
    341a:	4501                	li	a0,0
    341c:	a0b5                	j	3488 <__sflush_r+0x11c>
    341e:	4098                	lw	a4,0(s1)
    3420:	00c41783          	lh	a5,12(s0)
    3424:	cf01                	beqz	a4,343c <__sflush_r+0xd0>
    3426:	46f5                	li	a3,29
    3428:	00d70563          	beq	a4,a3,3432 <__sflush_r+0xc6>
    342c:	46d9                	li	a3,22
    342e:	04d71963          	bne	a4,a3,3480 <__sflush_r+0x114>
    3432:	481c                	lw	a5,16(s0)
    3434:	00042223          	sw	zero,4(s0)
    3438:	c01c                	sw	a5,0(s0)
    343a:	b74d                	j	33dc <__sflush_r+0x70>
    343c:	4818                	lw	a4,16(s0)
    343e:	83b1                	srli	a5,a5,0xc
    3440:	00042223          	sw	zero,4(s0)
    3444:	c018                	sw	a4,0(s0)
    3446:	8b85                	andi	a5,a5,1
    3448:	bf41                	j	33d8 <__sflush_r+0x6c>
    344a:	0105a983          	lw	s3,16(a1)
    344e:	fc0986e3          	beqz	s3,341a <__sflush_r+0xae>
    3452:	0005a903          	lw	s2,0(a1)
    3456:	8b8d                	andi	a5,a5,3
    3458:	0135a023          	sw	s3,0(a1)
    345c:	41390933          	sub	s2,s2,s3
    3460:	4701                	li	a4,0
    3462:	e391                	bnez	a5,3466 <__sflush_r+0xfa>
    3464:	49d8                	lw	a4,20(a1)
    3466:	c418                	sw	a4,8(s0)
    3468:	fb2059e3          	blez	s2,341a <__sflush_r+0xae>
    346c:	541c                	lw	a5,40(s0)
    346e:	500c                	lw	a1,32(s0)
    3470:	86ca                	mv	a3,s2
    3472:	864e                	mv	a2,s3
    3474:	8526                	mv	a0,s1
    3476:	9782                	jalr	a5
    3478:	00a04f63          	bgtz	a0,3496 <__sflush_r+0x12a>
    347c:	00c41783          	lh	a5,12(s0)
    3480:	0407e793          	ori	a5,a5,64
    3484:	a45e                	sh	a5,12(s0)
    3486:	557d                	li	a0,-1
    3488:	40f2                	lw	ra,28(sp)
    348a:	4462                	lw	s0,24(sp)
    348c:	44d2                	lw	s1,20(sp)
    348e:	4942                	lw	s2,16(sp)
    3490:	49b2                	lw	s3,12(sp)
    3492:	6105                	addi	sp,sp,32
    3494:	8082                	ret
    3496:	99aa                	add	s3,s3,a0
    3498:	40a90933          	sub	s2,s2,a0
    349c:	b7f1                	j	3468 <__sflush_r+0xfc>

0000349e <_fflush_r>:
    349e:	499c                	lw	a5,16(a1)
    34a0:	1141                	addi	sp,sp,-16
    34a2:	c606                	sw	ra,12(sp)
    34a4:	c422                	sw	s0,8(sp)
    34a6:	c226                	sw	s1,4(sp)
    34a8:	eb81                	bnez	a5,34b8 <_fflush_r+0x1a>
    34aa:	4481                	li	s1,0
    34ac:	40b2                	lw	ra,12(sp)
    34ae:	4422                	lw	s0,8(sp)
    34b0:	8526                	mv	a0,s1
    34b2:	4492                	lw	s1,4(sp)
    34b4:	0141                	addi	sp,sp,16
    34b6:	8082                	ret
    34b8:	84aa                	mv	s1,a0
    34ba:	842e                	mv	s0,a1
    34bc:	c501                	beqz	a0,34c4 <_fflush_r+0x26>
    34be:	4d1c                	lw	a5,24(a0)
    34c0:	e391                	bnez	a5,34c4 <_fflush_r+0x26>
    34c2:	2a05                	jal	35f2 <__sinit>
    34c4:	00001797          	auipc	a5,0x1
    34c8:	20078793          	addi	a5,a5,512 # 46c4 <__sf_fake_stdin>
    34cc:	02f41c63          	bne	s0,a5,3504 <_fflush_r+0x66>
    34d0:	40c0                	lw	s0,4(s1)
    34d2:	00c41783          	lh	a5,12(s0)
    34d6:	dbf1                	beqz	a5,34aa <_fflush_r+0xc>
    34d8:	5078                	lw	a4,100(s0)
    34da:	8b05                	andi	a4,a4,1
    34dc:	e711                	bnez	a4,34e8 <_fflush_r+0x4a>
    34de:	2007f793          	andi	a5,a5,512
    34e2:	e399                	bnez	a5,34e8 <_fflush_r+0x4a>
    34e4:	4c28                	lw	a0,88(s0)
    34e6:	2451                	jal	376a <__retarget_lock_acquire_recursive>
    34e8:	8526                	mv	a0,s1
    34ea:	85a2                	mv	a1,s0
    34ec:	3541                	jal	336c <__sflush_r>
    34ee:	507c                	lw	a5,100(s0)
    34f0:	84aa                	mv	s1,a0
    34f2:	8b85                	andi	a5,a5,1
    34f4:	ffc5                	bnez	a5,34ac <_fflush_r+0xe>
    34f6:	245e                	lhu	a5,12(s0)
    34f8:	2007f793          	andi	a5,a5,512
    34fc:	fbc5                	bnez	a5,34ac <_fflush_r+0xe>
    34fe:	4c28                	lw	a0,88(s0)
    3500:	24b5                	jal	376c <__retarget_lock_release_recursive>
    3502:	b76d                	j	34ac <_fflush_r+0xe>
    3504:	00001797          	auipc	a5,0x1
    3508:	1a078793          	addi	a5,a5,416 # 46a4 <__sf_fake_stdout>
    350c:	00f41463          	bne	s0,a5,3514 <_fflush_r+0x76>
    3510:	4480                	lw	s0,8(s1)
    3512:	b7c1                	j	34d2 <_fflush_r+0x34>
    3514:	00001797          	auipc	a5,0x1
    3518:	17078793          	addi	a5,a5,368 # 4684 <__sf_fake_stderr>
    351c:	faf41be3          	bne	s0,a5,34d2 <_fflush_r+0x34>
    3520:	44c0                	lw	s0,12(s1)
    3522:	bf45                	j	34d2 <_fflush_r+0x34>

00003524 <std>:
    3524:	1141                	addi	sp,sp,-16
    3526:	c422                	sw	s0,8(sp)
    3528:	c606                	sw	ra,12(sp)
    352a:	842a                	mv	s0,a0
    352c:	a54e                	sh	a1,12(a0)
    352e:	a572                	sh	a2,14(a0)
    3530:	00052023          	sw	zero,0(a0)
    3534:	00052223          	sw	zero,4(a0)
    3538:	00052423          	sw	zero,8(a0)
    353c:	06052223          	sw	zero,100(a0)
    3540:	00052823          	sw	zero,16(a0)
    3544:	00052a23          	sw	zero,20(a0)
    3548:	00052c23          	sw	zero,24(a0)
    354c:	4621                	li	a2,8
    354e:	4581                	li	a1,0
    3550:	05c50513          	addi	a0,a0,92
    3554:	bd7fc0ef          	jal	ra,12a <memset>
    3558:	00001797          	auipc	a5,0x1
    355c:	84878793          	addi	a5,a5,-1976 # 3da0 <__sread>
    3560:	d05c                	sw	a5,36(s0)
    3562:	00001797          	auipc	a5,0x1
    3566:	86a78793          	addi	a5,a5,-1942 # 3dcc <__swrite>
    356a:	d41c                	sw	a5,40(s0)
    356c:	00001797          	auipc	a5,0x1
    3570:	8a878793          	addi	a5,a5,-1880 # 3e14 <__sseek>
    3574:	d45c                	sw	a5,44(s0)
    3576:	00001797          	auipc	a5,0x1
    357a:	8ce78793          	addi	a5,a5,-1842 # 3e44 <__sclose>
    357e:	40b2                	lw	ra,12(sp)
    3580:	d000                	sw	s0,32(s0)
    3582:	d81c                	sw	a5,48(s0)
    3584:	4422                	lw	s0,8(sp)
    3586:	0141                	addi	sp,sp,16
    3588:	8082                	ret

0000358a <_cleanup_r>:
    358a:	00000597          	auipc	a1,0x0
    358e:	f1458593          	addi	a1,a1,-236 # 349e <_fflush_r>
    3592:	a2bd                	j	3700 <_fwalk_reent>

00003594 <__sfmoreglue>:
    3594:	1141                	addi	sp,sp,-16
    3596:	c226                	sw	s1,4(sp)
    3598:	06800793          	li	a5,104
    359c:	fff58493          	addi	s1,a1,-1
    35a0:	02f484b3          	mul	s1,s1,a5
    35a4:	c04a                	sw	s2,0(sp)
    35a6:	892e                	mv	s2,a1
    35a8:	c422                	sw	s0,8(sp)
    35aa:	c606                	sw	ra,12(sp)
    35ac:	07448593          	addi	a1,s1,116
    35b0:	2e69                	jal	394a <_malloc_r>
    35b2:	842a                	mv	s0,a0
    35b4:	cd01                	beqz	a0,35cc <__sfmoreglue+0x38>
    35b6:	00052023          	sw	zero,0(a0)
    35ba:	01252223          	sw	s2,4(a0)
    35be:	0531                	addi	a0,a0,12
    35c0:	c408                	sw	a0,8(s0)
    35c2:	06848613          	addi	a2,s1,104
    35c6:	4581                	li	a1,0
    35c8:	b63fc0ef          	jal	ra,12a <memset>
    35cc:	40b2                	lw	ra,12(sp)
    35ce:	8522                	mv	a0,s0
    35d0:	4422                	lw	s0,8(sp)
    35d2:	4492                	lw	s1,4(sp)
    35d4:	4902                	lw	s2,0(sp)
    35d6:	0141                	addi	sp,sp,16
    35d8:	8082                	ret

000035da <__sfp_lock_acquire>:
    35da:	85c18513          	addi	a0,gp,-1956 # 20000204 <__lock___sfp_recursive_mutex>
    35de:	a271                	j	376a <__retarget_lock_acquire_recursive>

000035e0 <__sfp_lock_release>:
    35e0:	85c18513          	addi	a0,gp,-1956 # 20000204 <__lock___sfp_recursive_mutex>
    35e4:	a261                	j	376c <__retarget_lock_release_recursive>

000035e6 <__sinit_lock_acquire>:
    35e6:	86018513          	addi	a0,gp,-1952 # 20000208 <__lock___sinit_recursive_mutex>
    35ea:	a241                	j	376a <__retarget_lock_acquire_recursive>

000035ec <__sinit_lock_release>:
    35ec:	86018513          	addi	a0,gp,-1952 # 20000208 <__lock___sinit_recursive_mutex>
    35f0:	aab5                	j	376c <__retarget_lock_release_recursive>

000035f2 <__sinit>:
    35f2:	1141                	addi	sp,sp,-16
    35f4:	c422                	sw	s0,8(sp)
    35f6:	c606                	sw	ra,12(sp)
    35f8:	842a                	mv	s0,a0
    35fa:	37f5                	jal	35e6 <__sinit_lock_acquire>
    35fc:	4c1c                	lw	a5,24(s0)
    35fe:	c789                	beqz	a5,3608 <__sinit+0x16>
    3600:	4422                	lw	s0,8(sp)
    3602:	40b2                	lw	ra,12(sp)
    3604:	0141                	addi	sp,sp,16
    3606:	b7dd                	j	35ec <__sinit_lock_release>
    3608:	00000797          	auipc	a5,0x0
    360c:	f8278793          	addi	a5,a5,-126 # 358a <_cleanup_r>
    3610:	d41c                	sw	a5,40(s0)
    3612:	04042423          	sw	zero,72(s0)
    3616:	04042623          	sw	zero,76(s0)
    361a:	04042823          	sw	zero,80(s0)
    361e:	81c1a783          	lw	a5,-2020(gp) # 200001c4 <_global_impure_ptr>
    3622:	00879463          	bne	a5,s0,362a <__sinit+0x38>
    3626:	4785                	li	a5,1
    3628:	cc1c                	sw	a5,24(s0)
    362a:	8522                	mv	a0,s0
    362c:	203d                	jal	365a <__sfp>
    362e:	c048                	sw	a0,4(s0)
    3630:	8522                	mv	a0,s0
    3632:	2025                	jal	365a <__sfp>
    3634:	c408                	sw	a0,8(s0)
    3636:	8522                	mv	a0,s0
    3638:	200d                	jal	365a <__sfp>
    363a:	c448                	sw	a0,12(s0)
    363c:	4048                	lw	a0,4(s0)
    363e:	4601                	li	a2,0
    3640:	4591                	li	a1,4
    3642:	35cd                	jal	3524 <std>
    3644:	4408                	lw	a0,8(s0)
    3646:	4605                	li	a2,1
    3648:	45a5                	li	a1,9
    364a:	3de9                	jal	3524 <std>
    364c:	4448                	lw	a0,12(s0)
    364e:	4609                	li	a2,2
    3650:	45c9                	li	a1,18
    3652:	3dc9                	jal	3524 <std>
    3654:	4785                	li	a5,1
    3656:	cc1c                	sw	a5,24(s0)
    3658:	b765                	j	3600 <__sinit+0xe>

0000365a <__sfp>:
    365a:	1141                	addi	sp,sp,-16
    365c:	c226                	sw	s1,4(sp)
    365e:	c04a                	sw	s2,0(sp)
    3660:	c606                	sw	ra,12(sp)
    3662:	c422                	sw	s0,8(sp)
    3664:	892a                	mv	s2,a0
    3666:	3f95                	jal	35da <__sfp_lock_acquire>
    3668:	81c1a483          	lw	s1,-2020(gp) # 200001c4 <_global_impure_ptr>
    366c:	4c9c                	lw	a5,24(s1)
    366e:	e399                	bnez	a5,3674 <__sfp+0x1a>
    3670:	8526                	mv	a0,s1
    3672:	3741                	jal	35f2 <__sinit>
    3674:	04848493          	addi	s1,s1,72
    3678:	4480                	lw	s0,8(s1)
    367a:	40dc                	lw	a5,4(s1)
    367c:	17fd                	addi	a5,a5,-1
    367e:	0007d663          	bgez	a5,368a <__sfp+0x30>
    3682:	409c                	lw	a5,0(s1)
    3684:	c3bd                	beqz	a5,36ea <__sfp+0x90>
    3686:	4084                	lw	s1,0(s1)
    3688:	bfc5                	j	3678 <__sfp+0x1e>
    368a:	00c41703          	lh	a4,12(s0)
    368e:	eb39                	bnez	a4,36e4 <__sfp+0x8a>
    3690:	77c1                	lui	a5,0xffff0
    3692:	0785                	addi	a5,a5,1 # ffff0001 <_eusrstack+0xdffeb001>
    3694:	c45c                	sw	a5,12(s0)
    3696:	05840513          	addi	a0,s0,88
    369a:	06042223          	sw	zero,100(s0)
    369e:	20e9                	jal	3768 <__retarget_lock_init_recursive>
    36a0:	3781                	jal	35e0 <__sfp_lock_release>
    36a2:	4621                	li	a2,8
    36a4:	00042023          	sw	zero,0(s0)
    36a8:	00042423          	sw	zero,8(s0)
    36ac:	00042223          	sw	zero,4(s0)
    36b0:	00042823          	sw	zero,16(s0)
    36b4:	00042a23          	sw	zero,20(s0)
    36b8:	00042c23          	sw	zero,24(s0)
    36bc:	4581                	li	a1,0
    36be:	05c40513          	addi	a0,s0,92
    36c2:	a69fc0ef          	jal	ra,12a <memset>
    36c6:	02042a23          	sw	zero,52(s0)
    36ca:	02042c23          	sw	zero,56(s0)
    36ce:	04042423          	sw	zero,72(s0)
    36d2:	04042623          	sw	zero,76(s0)
    36d6:	40b2                	lw	ra,12(sp)
    36d8:	8522                	mv	a0,s0
    36da:	4422                	lw	s0,8(sp)
    36dc:	4492                	lw	s1,4(sp)
    36de:	4902                	lw	s2,0(sp)
    36e0:	0141                	addi	sp,sp,16
    36e2:	8082                	ret
    36e4:	06840413          	addi	s0,s0,104
    36e8:	bf51                	j	367c <__sfp+0x22>
    36ea:	4591                	li	a1,4
    36ec:	854a                	mv	a0,s2
    36ee:	355d                	jal	3594 <__sfmoreglue>
    36f0:	c088                	sw	a0,0(s1)
    36f2:	842a                	mv	s0,a0
    36f4:	f949                	bnez	a0,3686 <__sfp+0x2c>
    36f6:	35ed                	jal	35e0 <__sfp_lock_release>
    36f8:	47b1                	li	a5,12
    36fa:	00f92023          	sw	a5,0(s2)
    36fe:	bfe1                	j	36d6 <__sfp+0x7c>

00003700 <_fwalk_reent>:
    3700:	7179                	addi	sp,sp,-48
    3702:	d422                	sw	s0,40(sp)
    3704:	d04a                	sw	s2,32(sp)
    3706:	ce4e                	sw	s3,28(sp)
    3708:	cc52                	sw	s4,24(sp)
    370a:	c85a                	sw	s6,16(sp)
    370c:	c65e                	sw	s7,12(sp)
    370e:	d606                	sw	ra,44(sp)
    3710:	d226                	sw	s1,36(sp)
    3712:	ca56                	sw	s5,20(sp)
    3714:	892a                	mv	s2,a0
    3716:	8a2e                	mv	s4,a1
    3718:	04850413          	addi	s0,a0,72
    371c:	4981                	li	s3,0
    371e:	4b05                	li	s6,1
    3720:	5bfd                	li	s7,-1
    3722:	4404                	lw	s1,8(s0)
    3724:	00442a83          	lw	s5,4(s0)
    3728:	1afd                	addi	s5,s5,-1
    372a:	020ad063          	bgez	s5,374a <_fwalk_reent+0x4a>
    372e:	4000                	lw	s0,0(s0)
    3730:	f86d                	bnez	s0,3722 <_fwalk_reent+0x22>
    3732:	50b2                	lw	ra,44(sp)
    3734:	5422                	lw	s0,40(sp)
    3736:	5492                	lw	s1,36(sp)
    3738:	5902                	lw	s2,32(sp)
    373a:	4a62                	lw	s4,24(sp)
    373c:	4ad2                	lw	s5,20(sp)
    373e:	4b42                	lw	s6,16(sp)
    3740:	4bb2                	lw	s7,12(sp)
    3742:	854e                	mv	a0,s3
    3744:	49f2                	lw	s3,28(sp)
    3746:	6145                	addi	sp,sp,48
    3748:	8082                	ret
    374a:	24de                	lhu	a5,12(s1)
    374c:	00fb7b63          	bgeu	s6,a5,3762 <_fwalk_reent+0x62>
    3750:	00e49783          	lh	a5,14(s1)
    3754:	01778763          	beq	a5,s7,3762 <_fwalk_reent+0x62>
    3758:	85a6                	mv	a1,s1
    375a:	854a                	mv	a0,s2
    375c:	9a02                	jalr	s4
    375e:	00a9e9b3          	or	s3,s3,a0
    3762:	06848493          	addi	s1,s1,104
    3766:	b7c9                	j	3728 <_fwalk_reent+0x28>

00003768 <__retarget_lock_init_recursive>:
    3768:	8082                	ret

0000376a <__retarget_lock_acquire_recursive>:
    376a:	8082                	ret

0000376c <__retarget_lock_release_recursive>:
    376c:	8082                	ret

0000376e <__swhatbuf_r>:
    376e:	7159                	addi	sp,sp,-112
    3770:	d4a2                	sw	s0,104(sp)
    3772:	842e                	mv	s0,a1
    3774:	00e59583          	lh	a1,14(a1)
    3778:	d2a6                	sw	s1,100(sp)
    377a:	d0ca                	sw	s2,96(sp)
    377c:	d686                	sw	ra,108(sp)
    377e:	84b2                	mv	s1,a2
    3780:	8936                	mv	s2,a3
    3782:	0205d263          	bgez	a1,37a6 <__swhatbuf_r+0x38>
    3786:	245e                	lhu	a5,12(s0)
    3788:	0807f793          	andi	a5,a5,128
    378c:	eb8d                	bnez	a5,37be <__swhatbuf_r+0x50>
    378e:	40000713          	li	a4,1024
    3792:	50b6                	lw	ra,108(sp)
    3794:	5426                	lw	s0,104(sp)
    3796:	00f92023          	sw	a5,0(s2)
    379a:	c098                	sw	a4,0(s1)
    379c:	5906                	lw	s2,96(sp)
    379e:	5496                	lw	s1,100(sp)
    37a0:	4501                	li	a0,0
    37a2:	6165                	addi	sp,sp,112
    37a4:	8082                	ret
    37a6:	0030                	addi	a2,sp,8
    37a8:	2dd5                	jal	3e9c <_fstat_r>
    37aa:	fc054ee3          	bltz	a0,3786 <__swhatbuf_r+0x18>
    37ae:	4732                	lw	a4,12(sp)
    37b0:	67bd                	lui	a5,0xf
    37b2:	8ff9                	and	a5,a5,a4
    37b4:	7779                	lui	a4,0xffffe
    37b6:	97ba                	add	a5,a5,a4
    37b8:	0017b793          	seqz	a5,a5
    37bc:	bfc9                	j	378e <__swhatbuf_r+0x20>
    37be:	4781                	li	a5,0
    37c0:	04000713          	li	a4,64
    37c4:	b7f9                	j	3792 <__swhatbuf_r+0x24>

000037c6 <__smakebuf_r>:
    37c6:	25de                	lhu	a5,12(a1)
    37c8:	7179                	addi	sp,sp,-48
    37ca:	d422                	sw	s0,40(sp)
    37cc:	d606                	sw	ra,44(sp)
    37ce:	d226                	sw	s1,36(sp)
    37d0:	d04a                	sw	s2,32(sp)
    37d2:	ce4e                	sw	s3,28(sp)
    37d4:	8b89                	andi	a5,a5,2
    37d6:	842e                	mv	s0,a1
    37d8:	cf91                	beqz	a5,37f4 <__smakebuf_r+0x2e>
    37da:	04740793          	addi	a5,s0,71
    37de:	c01c                	sw	a5,0(s0)
    37e0:	c81c                	sw	a5,16(s0)
    37e2:	4785                	li	a5,1
    37e4:	c85c                	sw	a5,20(s0)
    37e6:	50b2                	lw	ra,44(sp)
    37e8:	5422                	lw	s0,40(sp)
    37ea:	5492                	lw	s1,36(sp)
    37ec:	5902                	lw	s2,32(sp)
    37ee:	49f2                	lw	s3,28(sp)
    37f0:	6145                	addi	sp,sp,48
    37f2:	8082                	ret
    37f4:	0074                	addi	a3,sp,12
    37f6:	0030                	addi	a2,sp,8
    37f8:	84aa                	mv	s1,a0
    37fa:	3f95                	jal	376e <__swhatbuf_r>
    37fc:	49a2                	lw	s3,8(sp)
    37fe:	892a                	mv	s2,a0
    3800:	8526                	mv	a0,s1
    3802:	85ce                	mv	a1,s3
    3804:	2299                	jal	394a <_malloc_r>
    3806:	e919                	bnez	a0,381c <__smakebuf_r+0x56>
    3808:	00c41783          	lh	a5,12(s0)
    380c:	2007f713          	andi	a4,a5,512
    3810:	fb79                	bnez	a4,37e6 <__smakebuf_r+0x20>
    3812:	9bf1                	andi	a5,a5,-4
    3814:	0027e793          	ori	a5,a5,2
    3818:	a45e                	sh	a5,12(s0)
    381a:	b7c1                	j	37da <__smakebuf_r+0x14>
    381c:	00000797          	auipc	a5,0x0
    3820:	d6e78793          	addi	a5,a5,-658 # 358a <_cleanup_r>
    3824:	d49c                	sw	a5,40(s1)
    3826:	245e                	lhu	a5,12(s0)
    3828:	c008                	sw	a0,0(s0)
    382a:	c808                	sw	a0,16(s0)
    382c:	0807e793          	ori	a5,a5,128
    3830:	a45e                	sh	a5,12(s0)
    3832:	47b2                	lw	a5,12(sp)
    3834:	01342a23          	sw	s3,20(s0)
    3838:	cb99                	beqz	a5,384e <__smakebuf_r+0x88>
    383a:	00e41583          	lh	a1,14(s0)
    383e:	8526                	mv	a0,s1
    3840:	2551                	jal	3ec4 <_isatty_r>
    3842:	c511                	beqz	a0,384e <__smakebuf_r+0x88>
    3844:	245e                	lhu	a5,12(s0)
    3846:	9bf1                	andi	a5,a5,-4
    3848:	0017e793          	ori	a5,a5,1
    384c:	a45e                	sh	a5,12(s0)
    384e:	245e                	lhu	a5,12(s0)
    3850:	0127e533          	or	a0,a5,s2
    3854:	a44a                	sh	a0,12(s0)
    3856:	bf41                	j	37e6 <__smakebuf_r+0x20>

00003858 <_free_r>:
    3858:	cdd1                	beqz	a1,38f4 <_free_r+0x9c>
    385a:	ffc5a783          	lw	a5,-4(a1)
    385e:	1101                	addi	sp,sp,-32
    3860:	cc22                	sw	s0,24(sp)
    3862:	ce06                	sw	ra,28(sp)
    3864:	ffc58413          	addi	s0,a1,-4
    3868:	0007d363          	bgez	a5,386e <_free_r+0x16>
    386c:	943e                	add	s0,s0,a5
    386e:	c62a                	sw	a0,12(sp)
    3870:	2d75                	jal	3f2c <__malloc_lock>
    3872:	86818713          	addi	a4,gp,-1944 # 20000210 <__malloc_free_list>
    3876:	431c                	lw	a5,0(a4)
    3878:	4532                	lw	a0,12(sp)
    387a:	eb81                	bnez	a5,388a <_free_r+0x32>
    387c:	00042223          	sw	zero,4(s0)
    3880:	c300                	sw	s0,0(a4)
    3882:	4462                	lw	s0,24(sp)
    3884:	40f2                	lw	ra,28(sp)
    3886:	6105                	addi	sp,sp,32
    3888:	a575                	j	3f34 <__malloc_unlock>
    388a:	00f47d63          	bgeu	s0,a5,38a4 <_free_r+0x4c>
    388e:	4010                	lw	a2,0(s0)
    3890:	00c406b3          	add	a3,s0,a2
    3894:	00d79663          	bne	a5,a3,38a0 <_free_r+0x48>
    3898:	4394                	lw	a3,0(a5)
    389a:	43dc                	lw	a5,4(a5)
    389c:	96b2                	add	a3,a3,a2
    389e:	c014                	sw	a3,0(s0)
    38a0:	c05c                	sw	a5,4(s0)
    38a2:	bff9                	j	3880 <_free_r+0x28>
    38a4:	873e                	mv	a4,a5
    38a6:	43dc                	lw	a5,4(a5)
    38a8:	c399                	beqz	a5,38ae <_free_r+0x56>
    38aa:	fef47de3          	bgeu	s0,a5,38a4 <_free_r+0x4c>
    38ae:	4314                	lw	a3,0(a4)
    38b0:	00d70633          	add	a2,a4,a3
    38b4:	00861f63          	bne	a2,s0,38d2 <_free_r+0x7a>
    38b8:	4010                	lw	a2,0(s0)
    38ba:	96b2                	add	a3,a3,a2
    38bc:	c314                	sw	a3,0(a4)
    38be:	00d70633          	add	a2,a4,a3
    38c2:	fcc790e3          	bne	a5,a2,3882 <_free_r+0x2a>
    38c6:	4390                	lw	a2,0(a5)
    38c8:	43dc                	lw	a5,4(a5)
    38ca:	96b2                	add	a3,a3,a2
    38cc:	c314                	sw	a3,0(a4)
    38ce:	c35c                	sw	a5,4(a4)
    38d0:	bf4d                	j	3882 <_free_r+0x2a>
    38d2:	00c47563          	bgeu	s0,a2,38dc <_free_r+0x84>
    38d6:	47b1                	li	a5,12
    38d8:	c11c                	sw	a5,0(a0)
    38da:	b765                	j	3882 <_free_r+0x2a>
    38dc:	4010                	lw	a2,0(s0)
    38de:	00c406b3          	add	a3,s0,a2
    38e2:	00d79663          	bne	a5,a3,38ee <_free_r+0x96>
    38e6:	4394                	lw	a3,0(a5)
    38e8:	43dc                	lw	a5,4(a5)
    38ea:	96b2                	add	a3,a3,a2
    38ec:	c014                	sw	a3,0(s0)
    38ee:	c05c                	sw	a5,4(s0)
    38f0:	c340                	sw	s0,4(a4)
    38f2:	bf41                	j	3882 <_free_r+0x2a>
    38f4:	8082                	ret

000038f6 <sbrk_aligned>:
    38f6:	1141                	addi	sp,sp,-16
    38f8:	c04a                	sw	s2,0(sp)
    38fa:	86418913          	addi	s2,gp,-1948 # 2000020c <__malloc_sbrk_start>
    38fe:	00092783          	lw	a5,0(s2)
    3902:	c422                	sw	s0,8(sp)
    3904:	c226                	sw	s1,4(sp)
    3906:	c606                	sw	ra,12(sp)
    3908:	84aa                	mv	s1,a0
    390a:	842e                	mv	s0,a1
    390c:	e789                	bnez	a5,3916 <sbrk_aligned+0x20>
    390e:	4581                	li	a1,0
    3910:	21a5                	jal	3d78 <_sbrk_r>
    3912:	00a92023          	sw	a0,0(s2)
    3916:	85a2                	mv	a1,s0
    3918:	8526                	mv	a0,s1
    391a:	29b9                	jal	3d78 <_sbrk_r>
    391c:	597d                	li	s2,-1
    391e:	01251a63          	bne	a0,s2,3932 <sbrk_aligned+0x3c>
    3922:	547d                	li	s0,-1
    3924:	40b2                	lw	ra,12(sp)
    3926:	8522                	mv	a0,s0
    3928:	4422                	lw	s0,8(sp)
    392a:	4492                	lw	s1,4(sp)
    392c:	4902                	lw	s2,0(sp)
    392e:	0141                	addi	sp,sp,16
    3930:	8082                	ret
    3932:	00350413          	addi	s0,a0,3
    3936:	9871                	andi	s0,s0,-4
    3938:	fe8506e3          	beq	a0,s0,3924 <sbrk_aligned+0x2e>
    393c:	40a405b3          	sub	a1,s0,a0
    3940:	8526                	mv	a0,s1
    3942:	291d                	jal	3d78 <_sbrk_r>
    3944:	ff2510e3          	bne	a0,s2,3924 <sbrk_aligned+0x2e>
    3948:	bfe9                	j	3922 <sbrk_aligned+0x2c>

0000394a <_malloc_r>:
    394a:	1101                	addi	sp,sp,-32
    394c:	ca26                	sw	s1,20(sp)
    394e:	00358493          	addi	s1,a1,3
    3952:	98f1                	andi	s1,s1,-4
    3954:	c84a                	sw	s2,16(sp)
    3956:	ce06                	sw	ra,28(sp)
    3958:	cc22                	sw	s0,24(sp)
    395a:	c64e                	sw	s3,12(sp)
    395c:	04a1                	addi	s1,s1,8
    395e:	47b1                	li	a5,12
    3960:	892a                	mv	s2,a0
    3962:	06f4f363          	bgeu	s1,a5,39c8 <_malloc_r+0x7e>
    3966:	44b1                	li	s1,12
    3968:	06b4e263          	bltu	s1,a1,39cc <_malloc_r+0x82>
    396c:	854a                	mv	a0,s2
    396e:	2b7d                	jal	3f2c <__malloc_lock>
    3970:	86818993          	addi	s3,gp,-1944 # 20000210 <__malloc_free_list>
    3974:	0009a783          	lw	a5,0(s3)
    3978:	843e                	mv	s0,a5
    397a:	e425                	bnez	s0,39e2 <_malloc_r+0x98>
    397c:	85a6                	mv	a1,s1
    397e:	854a                	mv	a0,s2
    3980:	3f9d                	jal	38f6 <sbrk_aligned>
    3982:	57fd                	li	a5,-1
    3984:	842a                	mv	s0,a0
    3986:	0cf51463          	bne	a0,a5,3a4e <_malloc_r+0x104>
    398a:	0009a403          	lw	s0,0(s3)
    398e:	87a2                	mv	a5,s0
    3990:	e7d5                	bnez	a5,3a3c <_malloc_r+0xf2>
    3992:	00042983          	lw	s3,0(s0)
    3996:	4581                	li	a1,0
    3998:	854a                	mv	a0,s2
    399a:	99a2                	add	s3,s3,s0
    399c:	2ef1                	jal	3d78 <_sbrk_r>
    399e:	0aa99263          	bne	s3,a0,3a42 <_malloc_r+0xf8>
    39a2:	401c                	lw	a5,0(s0)
    39a4:	048d                	addi	s1,s1,3
    39a6:	8c9d                	sub	s1,s1,a5
    39a8:	98f1                	andi	s1,s1,-4
    39aa:	04a1                	addi	s1,s1,8
    39ac:	47b1                	li	a5,12
    39ae:	00f4f363          	bgeu	s1,a5,39b4 <_malloc_r+0x6a>
    39b2:	44b1                	li	s1,12
    39b4:	85a6                	mv	a1,s1
    39b6:	854a                	mv	a0,s2
    39b8:	3f3d                	jal	38f6 <sbrk_aligned>
    39ba:	57fd                	li	a5,-1
    39bc:	08f50363          	beq	a0,a5,3a42 <_malloc_r+0xf8>
    39c0:	401c                	lw	a5,0(s0)
    39c2:	97a6                	add	a5,a5,s1
    39c4:	c01c                	sw	a5,0(s0)
    39c6:	a83d                	j	3a04 <_malloc_r+0xba>
    39c8:	fa04d0e3          	bgez	s1,3968 <_malloc_r+0x1e>
    39cc:	47b1                	li	a5,12
    39ce:	00f92023          	sw	a5,0(s2)
    39d2:	4501                	li	a0,0
    39d4:	40f2                	lw	ra,28(sp)
    39d6:	4462                	lw	s0,24(sp)
    39d8:	44d2                	lw	s1,20(sp)
    39da:	4942                	lw	s2,16(sp)
    39dc:	49b2                	lw	s3,12(sp)
    39de:	6105                	addi	sp,sp,32
    39e0:	8082                	ret
    39e2:	4014                	lw	a3,0(s0)
    39e4:	8e85                	sub	a3,a3,s1
    39e6:	0406c863          	bltz	a3,3a36 <_malloc_r+0xec>
    39ea:	472d                	li	a4,11
    39ec:	02d77d63          	bgeu	a4,a3,3a26 <_malloc_r+0xdc>
    39f0:	c004                	sw	s1,0(s0)
    39f2:	00940733          	add	a4,s0,s1
    39f6:	02879663          	bne	a5,s0,3a22 <_malloc_r+0xd8>
    39fa:	00e9a023          	sw	a4,0(s3)
    39fe:	405c                	lw	a5,4(s0)
    3a00:	c314                	sw	a3,0(a4)
    3a02:	c35c                	sw	a5,4(a4)
    3a04:	854a                	mv	a0,s2
    3a06:	233d                	jal	3f34 <__malloc_unlock>
    3a08:	00b40513          	addi	a0,s0,11
    3a0c:	00440793          	addi	a5,s0,4
    3a10:	9961                	andi	a0,a0,-8
    3a12:	40f50733          	sub	a4,a0,a5
    3a16:	faf50fe3          	beq	a0,a5,39d4 <_malloc_r+0x8a>
    3a1a:	943a                	add	s0,s0,a4
    3a1c:	8f89                	sub	a5,a5,a0
    3a1e:	c01c                	sw	a5,0(s0)
    3a20:	bf55                	j	39d4 <_malloc_r+0x8a>
    3a22:	c3d8                	sw	a4,4(a5)
    3a24:	bfe9                	j	39fe <_malloc_r+0xb4>
    3a26:	4058                	lw	a4,4(s0)
    3a28:	00879563          	bne	a5,s0,3a32 <_malloc_r+0xe8>
    3a2c:	00e9a023          	sw	a4,0(s3)
    3a30:	bfd1                	j	3a04 <_malloc_r+0xba>
    3a32:	c3d8                	sw	a4,4(a5)
    3a34:	bfc1                	j	3a04 <_malloc_r+0xba>
    3a36:	87a2                	mv	a5,s0
    3a38:	4040                	lw	s0,4(s0)
    3a3a:	b781                	j	397a <_malloc_r+0x30>
    3a3c:	843e                	mv	s0,a5
    3a3e:	43dc                	lw	a5,4(a5)
    3a40:	bf81                	j	3990 <_malloc_r+0x46>
    3a42:	47b1                	li	a5,12
    3a44:	00f92023          	sw	a5,0(s2)
    3a48:	854a                	mv	a0,s2
    3a4a:	21ed                	jal	3f34 <__malloc_unlock>
    3a4c:	b759                	j	39d2 <_malloc_r+0x88>
    3a4e:	c104                	sw	s1,0(a0)
    3a50:	bf55                	j	3a04 <_malloc_r+0xba>

00003a52 <__sfputc_r>:
    3a52:	461c                	lw	a5,8(a2)
    3a54:	17fd                	addi	a5,a5,-1
    3a56:	c61c                	sw	a5,8(a2)
    3a58:	0007da63          	bgez	a5,3a6c <__sfputc_r+0x1a>
    3a5c:	4e18                	lw	a4,24(a2)
    3a5e:	00e7c563          	blt	a5,a4,3a68 <__sfputc_r+0x16>
    3a62:	47a9                	li	a5,10
    3a64:	00f59463          	bne	a1,a5,3a6c <__sfputc_r+0x1a>
    3a68:	f5aff06f          	j	31c2 <__swbuf_r>
    3a6c:	421c                	lw	a5,0(a2)
    3a6e:	852e                	mv	a0,a1
    3a70:	00178713          	addi	a4,a5,1
    3a74:	c218                	sw	a4,0(a2)
    3a76:	a38c                	sb	a1,0(a5)
    3a78:	8082                	ret

00003a7a <__sfputs_r>:
    3a7a:	1101                	addi	sp,sp,-32
    3a7c:	cc22                	sw	s0,24(sp)
    3a7e:	ca26                	sw	s1,20(sp)
    3a80:	c84a                	sw	s2,16(sp)
    3a82:	c64e                	sw	s3,12(sp)
    3a84:	c452                	sw	s4,8(sp)
    3a86:	ce06                	sw	ra,28(sp)
    3a88:	892a                	mv	s2,a0
    3a8a:	89ae                	mv	s3,a1
    3a8c:	8432                	mv	s0,a2
    3a8e:	00d604b3          	add	s1,a2,a3
    3a92:	5a7d                	li	s4,-1
    3a94:	00941463          	bne	s0,s1,3a9c <__sfputs_r+0x22>
    3a98:	4501                	li	a0,0
    3a9a:	a801                	j	3aaa <__sfputs_r+0x30>
    3a9c:	200c                	lbu	a1,0(s0)
    3a9e:	864e                	mv	a2,s3
    3aa0:	854a                	mv	a0,s2
    3aa2:	3f45                	jal	3a52 <__sfputc_r>
    3aa4:	0405                	addi	s0,s0,1
    3aa6:	ff4517e3          	bne	a0,s4,3a94 <__sfputs_r+0x1a>
    3aaa:	40f2                	lw	ra,28(sp)
    3aac:	4462                	lw	s0,24(sp)
    3aae:	44d2                	lw	s1,20(sp)
    3ab0:	4942                	lw	s2,16(sp)
    3ab2:	49b2                	lw	s3,12(sp)
    3ab4:	4a22                	lw	s4,8(sp)
    3ab6:	6105                	addi	sp,sp,32
    3ab8:	8082                	ret

00003aba <_vfiprintf_r>:
    3aba:	7135                	addi	sp,sp,-160
    3abc:	cd22                	sw	s0,152(sp)
    3abe:	cb26                	sw	s1,148(sp)
    3ac0:	c94a                	sw	s2,144(sp)
    3ac2:	c74e                	sw	s3,140(sp)
    3ac4:	cf06                	sw	ra,156(sp)
    3ac6:	c552                	sw	s4,136(sp)
    3ac8:	c356                	sw	s5,132(sp)
    3aca:	c15a                	sw	s6,128(sp)
    3acc:	dede                	sw	s7,124(sp)
    3ace:	dce2                	sw	s8,120(sp)
    3ad0:	dae6                	sw	s9,116(sp)
    3ad2:	89aa                	mv	s3,a0
    3ad4:	842e                	mv	s0,a1
    3ad6:	8932                	mv	s2,a2
    3ad8:	84b6                	mv	s1,a3
    3ada:	c509                	beqz	a0,3ae4 <_vfiprintf_r+0x2a>
    3adc:	4d1c                	lw	a5,24(a0)
    3ade:	e399                	bnez	a5,3ae4 <_vfiprintf_r+0x2a>
    3ae0:	b13ff0ef          	jal	ra,35f2 <__sinit>
    3ae4:	00001797          	auipc	a5,0x1
    3ae8:	be078793          	addi	a5,a5,-1056 # 46c4 <__sf_fake_stdin>
    3aec:	04f41963          	bne	s0,a5,3b3e <_vfiprintf_r+0x84>
    3af0:	0049a403          	lw	s0,4(s3)
    3af4:	507c                	lw	a5,100(s0)
    3af6:	8b85                	andi	a5,a5,1
    3af8:	eb81                	bnez	a5,3b08 <_vfiprintf_r+0x4e>
    3afa:	245e                	lhu	a5,12(s0)
    3afc:	2007f793          	andi	a5,a5,512
    3b00:	e781                	bnez	a5,3b08 <_vfiprintf_r+0x4e>
    3b02:	4c28                	lw	a0,88(s0)
    3b04:	c67ff0ef          	jal	ra,376a <__retarget_lock_acquire_recursive>
    3b08:	245e                	lhu	a5,12(s0)
    3b0a:	8ba1                	andi	a5,a5,8
    3b0c:	c399                	beqz	a5,3b12 <_vfiprintf_r+0x58>
    3b0e:	481c                	lw	a5,16(s0)
    3b10:	e3ad                	bnez	a5,3b72 <_vfiprintf_r+0xb8>
    3b12:	85a2                	mv	a1,s0
    3b14:	854e                	mv	a0,s3
    3b16:	f68ff0ef          	jal	ra,327e <__swsetup_r>
    3b1a:	cd21                	beqz	a0,3b72 <_vfiprintf_r+0xb8>
    3b1c:	507c                	lw	a5,100(s0)
    3b1e:	8b85                	andi	a5,a5,1
    3b20:	c3a9                	beqz	a5,3b62 <_vfiprintf_r+0xa8>
    3b22:	557d                	li	a0,-1
    3b24:	40fa                	lw	ra,156(sp)
    3b26:	446a                	lw	s0,152(sp)
    3b28:	44da                	lw	s1,148(sp)
    3b2a:	494a                	lw	s2,144(sp)
    3b2c:	49ba                	lw	s3,140(sp)
    3b2e:	4a2a                	lw	s4,136(sp)
    3b30:	4a9a                	lw	s5,132(sp)
    3b32:	4b0a                	lw	s6,128(sp)
    3b34:	5bf6                	lw	s7,124(sp)
    3b36:	5c66                	lw	s8,120(sp)
    3b38:	5cd6                	lw	s9,116(sp)
    3b3a:	610d                	addi	sp,sp,160
    3b3c:	8082                	ret
    3b3e:	00001797          	auipc	a5,0x1
    3b42:	b6678793          	addi	a5,a5,-1178 # 46a4 <__sf_fake_stdout>
    3b46:	00f41563          	bne	s0,a5,3b50 <_vfiprintf_r+0x96>
    3b4a:	0089a403          	lw	s0,8(s3)
    3b4e:	b75d                	j	3af4 <_vfiprintf_r+0x3a>
    3b50:	00001797          	auipc	a5,0x1
    3b54:	b3478793          	addi	a5,a5,-1228 # 4684 <__sf_fake_stderr>
    3b58:	f8f41ee3          	bne	s0,a5,3af4 <_vfiprintf_r+0x3a>
    3b5c:	00c9a403          	lw	s0,12(s3)
    3b60:	bf51                	j	3af4 <_vfiprintf_r+0x3a>
    3b62:	245e                	lhu	a5,12(s0)
    3b64:	2007f793          	andi	a5,a5,512
    3b68:	ffcd                	bnez	a5,3b22 <_vfiprintf_r+0x68>
    3b6a:	4c28                	lw	a0,88(s0)
    3b6c:	c01ff0ef          	jal	ra,376c <__retarget_lock_release_recursive>
    3b70:	bf4d                	j	3b22 <_vfiprintf_r+0x68>
    3b72:	02000793          	li	a5,32
    3b76:	02f104a3          	sb	a5,41(sp)
    3b7a:	03000793          	li	a5,48
    3b7e:	d202                	sw	zero,36(sp)
    3b80:	02f10523          	sb	a5,42(sp)
    3b84:	c626                	sw	s1,12(sp)
    3b86:	02500b93          	li	s7,37
    3b8a:	00001a97          	auipc	s5,0x1
    3b8e:	b5aa8a93          	addi	s5,s5,-1190 # 46e4 <__sf_fake_stdin+0x20>
    3b92:	4c05                	li	s8,1
    3b94:	4b29                	li	s6,10
    3b96:	84ca                	mv	s1,s2
    3b98:	209c                	lbu	a5,0(s1)
    3b9a:	c399                	beqz	a5,3ba0 <_vfiprintf_r+0xe6>
    3b9c:	09779963          	bne	a5,s7,3c2e <_vfiprintf_r+0x174>
    3ba0:	41248cb3          	sub	s9,s1,s2
    3ba4:	01248d63          	beq	s1,s2,3bbe <_vfiprintf_r+0x104>
    3ba8:	86e6                	mv	a3,s9
    3baa:	864a                	mv	a2,s2
    3bac:	85a2                	mv	a1,s0
    3bae:	854e                	mv	a0,s3
    3bb0:	35e9                	jal	3a7a <__sfputs_r>
    3bb2:	57fd                	li	a5,-1
    3bb4:	18f50763          	beq	a0,a5,3d42 <_vfiprintf_r+0x288>
    3bb8:	5792                	lw	a5,36(sp)
    3bba:	97e6                	add	a5,a5,s9
    3bbc:	d23e                	sw	a5,36(sp)
    3bbe:	209c                	lbu	a5,0(s1)
    3bc0:	18078163          	beqz	a5,3d42 <_vfiprintf_r+0x288>
    3bc4:	57fd                	li	a5,-1
    3bc6:	00148913          	addi	s2,s1,1
    3bca:	c802                	sw	zero,16(sp)
    3bcc:	ce02                	sw	zero,28(sp)
    3bce:	ca3e                	sw	a5,20(sp)
    3bd0:	cc02                	sw	zero,24(sp)
    3bd2:	040109a3          	sb	zero,83(sp)
    3bd6:	d482                	sw	zero,104(sp)
    3bd8:	00094583          	lbu	a1,0(s2)
    3bdc:	4615                	li	a2,5
    3bde:	8556                	mv	a0,s5
    3be0:	2e15                	jal	3f14 <memchr>
    3be2:	47c2                	lw	a5,16(sp)
    3be4:	00190493          	addi	s1,s2,1
    3be8:	e529                	bnez	a0,3c32 <_vfiprintf_r+0x178>
    3bea:	0107f713          	andi	a4,a5,16
    3bee:	c709                	beqz	a4,3bf8 <_vfiprintf_r+0x13e>
    3bf0:	02000713          	li	a4,32
    3bf4:	04e109a3          	sb	a4,83(sp)
    3bf8:	0087f713          	andi	a4,a5,8
    3bfc:	c709                	beqz	a4,3c06 <_vfiprintf_r+0x14c>
    3bfe:	02b00713          	li	a4,43
    3c02:	04e109a3          	sb	a4,83(sp)
    3c06:	00094683          	lbu	a3,0(s2)
    3c0a:	02a00713          	li	a4,42
    3c0e:	02e68a63          	beq	a3,a4,3c42 <_vfiprintf_r+0x188>
    3c12:	47f2                	lw	a5,28(sp)
    3c14:	84ca                	mv	s1,s2
    3c16:	4681                	li	a3,0
    3c18:	4625                	li	a2,9
    3c1a:	2098                	lbu	a4,0(s1)
    3c1c:	00148593          	addi	a1,s1,1
    3c20:	fd070713          	addi	a4,a4,-48 # ffffdfd0 <_eusrstack+0xdfff8fd0>
    3c24:	06e67363          	bgeu	a2,a4,3c8a <_vfiprintf_r+0x1d0>
    3c28:	c68d                	beqz	a3,3c52 <_vfiprintf_r+0x198>
    3c2a:	ce3e                	sw	a5,28(sp)
    3c2c:	a01d                	j	3c52 <_vfiprintf_r+0x198>
    3c2e:	0485                	addi	s1,s1,1
    3c30:	b7a5                	j	3b98 <_vfiprintf_r+0xde>
    3c32:	41550533          	sub	a0,a0,s5
    3c36:	00ac1533          	sll	a0,s8,a0
    3c3a:	8fc9                	or	a5,a5,a0
    3c3c:	c83e                	sw	a5,16(sp)
    3c3e:	8926                	mv	s2,s1
    3c40:	bf61                	j	3bd8 <_vfiprintf_r+0x11e>
    3c42:	4732                	lw	a4,12(sp)
    3c44:	00470693          	addi	a3,a4,4
    3c48:	4318                	lw	a4,0(a4)
    3c4a:	c636                	sw	a3,12(sp)
    3c4c:	02074863          	bltz	a4,3c7c <_vfiprintf_r+0x1c2>
    3c50:	ce3a                	sw	a4,28(sp)
    3c52:	2098                	lbu	a4,0(s1)
    3c54:	02e00793          	li	a5,46
    3c58:	04f71c63          	bne	a4,a5,3cb0 <_vfiprintf_r+0x1f6>
    3c5c:	3098                	lbu	a4,1(s1)
    3c5e:	02a00793          	li	a5,42
    3c62:	02f71a63          	bne	a4,a5,3c96 <_vfiprintf_r+0x1dc>
    3c66:	47b2                	lw	a5,12(sp)
    3c68:	0489                	addi	s1,s1,2
    3c6a:	00478713          	addi	a4,a5,4
    3c6e:	439c                	lw	a5,0(a5)
    3c70:	c63a                	sw	a4,12(sp)
    3c72:	0007d363          	bgez	a5,3c78 <_vfiprintf_r+0x1be>
    3c76:	57fd                	li	a5,-1
    3c78:	ca3e                	sw	a5,20(sp)
    3c7a:	a81d                	j	3cb0 <_vfiprintf_r+0x1f6>
    3c7c:	40e00733          	neg	a4,a4
    3c80:	0027e793          	ori	a5,a5,2
    3c84:	ce3a                	sw	a4,28(sp)
    3c86:	c83e                	sw	a5,16(sp)
    3c88:	b7e9                	j	3c52 <_vfiprintf_r+0x198>
    3c8a:	036787b3          	mul	a5,a5,s6
    3c8e:	84ae                	mv	s1,a1
    3c90:	4685                	li	a3,1
    3c92:	97ba                	add	a5,a5,a4
    3c94:	b759                	j	3c1a <_vfiprintf_r+0x160>
    3c96:	0485                	addi	s1,s1,1
    3c98:	ca02                	sw	zero,20(sp)
    3c9a:	4681                	li	a3,0
    3c9c:	4781                	li	a5,0
    3c9e:	4625                	li	a2,9
    3ca0:	2098                	lbu	a4,0(s1)
    3ca2:	00148593          	addi	a1,s1,1
    3ca6:	fd070713          	addi	a4,a4,-48
    3caa:	06e67263          	bgeu	a2,a4,3d0e <_vfiprintf_r+0x254>
    3cae:	f6e9                	bnez	a3,3c78 <_vfiprintf_r+0x1be>
    3cb0:	208c                	lbu	a1,0(s1)
    3cb2:	460d                	li	a2,3
    3cb4:	00001517          	auipc	a0,0x1
    3cb8:	a3850513          	addi	a0,a0,-1480 # 46ec <__sf_fake_stdin+0x28>
    3cbc:	2ca1                	jal	3f14 <memchr>
    3cbe:	cd11                	beqz	a0,3cda <_vfiprintf_r+0x220>
    3cc0:	00001797          	auipc	a5,0x1
    3cc4:	a2c78793          	addi	a5,a5,-1492 # 46ec <__sf_fake_stdin+0x28>
    3cc8:	8d1d                	sub	a0,a0,a5
    3cca:	47c2                	lw	a5,16(sp)
    3ccc:	04000713          	li	a4,64
    3cd0:	00a71733          	sll	a4,a4,a0
    3cd4:	8fd9                	or	a5,a5,a4
    3cd6:	0485                	addi	s1,s1,1
    3cd8:	c83e                	sw	a5,16(sp)
    3cda:	208c                	lbu	a1,0(s1)
    3cdc:	4619                	li	a2,6
    3cde:	00001517          	auipc	a0,0x1
    3ce2:	a1250513          	addi	a0,a0,-1518 # 46f0 <__sf_fake_stdin+0x2c>
    3ce6:	00148913          	addi	s2,s1,1
    3cea:	02b10423          	sb	a1,40(sp)
    3cee:	241d                	jal	3f14 <memchr>
    3cf0:	c935                	beqz	a0,3d64 <_vfiprintf_r+0x2aa>
    3cf2:	00000793          	li	a5,0
    3cf6:	e795                	bnez	a5,3d22 <_vfiprintf_r+0x268>
    3cf8:	4742                	lw	a4,16(sp)
    3cfa:	47b2                	lw	a5,12(sp)
    3cfc:	10077713          	andi	a4,a4,256
    3d00:	cf09                	beqz	a4,3d1a <_vfiprintf_r+0x260>
    3d02:	0791                	addi	a5,a5,4
    3d04:	c63e                	sw	a5,12(sp)
    3d06:	5792                	lw	a5,36(sp)
    3d08:	97d2                	add	a5,a5,s4
    3d0a:	d23e                	sw	a5,36(sp)
    3d0c:	b569                	j	3b96 <_vfiprintf_r+0xdc>
    3d0e:	036787b3          	mul	a5,a5,s6
    3d12:	84ae                	mv	s1,a1
    3d14:	4685                	li	a3,1
    3d16:	97ba                	add	a5,a5,a4
    3d18:	b761                	j	3ca0 <_vfiprintf_r+0x1e6>
    3d1a:	079d                	addi	a5,a5,7
    3d1c:	9be1                	andi	a5,a5,-8
    3d1e:	07a1                	addi	a5,a5,8
    3d20:	b7d5                	j	3d04 <_vfiprintf_r+0x24a>
    3d22:	0078                	addi	a4,sp,12
    3d24:	00000697          	auipc	a3,0x0
    3d28:	d5668693          	addi	a3,a3,-682 # 3a7a <__sfputs_r>
    3d2c:	8622                	mv	a2,s0
    3d2e:	080c                	addi	a1,sp,16
    3d30:	854e                	mv	a0,s3
    3d32:	00000097          	auipc	ra,0x0
    3d36:	000000e7          	jalr	zero # 0 <_sinit>
    3d3a:	57fd                	li	a5,-1
    3d3c:	8a2a                	mv	s4,a0
    3d3e:	fcf514e3          	bne	a0,a5,3d06 <_vfiprintf_r+0x24c>
    3d42:	507c                	lw	a5,100(s0)
    3d44:	8b85                	andi	a5,a5,1
    3d46:	eb81                	bnez	a5,3d56 <_vfiprintf_r+0x29c>
    3d48:	245e                	lhu	a5,12(s0)
    3d4a:	2007f793          	andi	a5,a5,512
    3d4e:	e781                	bnez	a5,3d56 <_vfiprintf_r+0x29c>
    3d50:	4c28                	lw	a0,88(s0)
    3d52:	a1bff0ef          	jal	ra,376c <__retarget_lock_release_recursive>
    3d56:	245e                	lhu	a5,12(s0)
    3d58:	0407f793          	andi	a5,a5,64
    3d5c:	dc0793e3          	bnez	a5,3b22 <_vfiprintf_r+0x68>
    3d60:	5512                	lw	a0,36(sp)
    3d62:	b3c9                	j	3b24 <_vfiprintf_r+0x6a>
    3d64:	0078                	addi	a4,sp,12
    3d66:	00000697          	auipc	a3,0x0
    3d6a:	d1468693          	addi	a3,a3,-748 # 3a7a <__sfputs_r>
    3d6e:	8622                	mv	a2,s0
    3d70:	080c                	addi	a1,sp,16
    3d72:	854e                	mv	a0,s3
    3d74:	2ce1                	jal	404c <_printf_i>
    3d76:	b7d1                	j	3d3a <_vfiprintf_r+0x280>

00003d78 <_sbrk_r>:
    3d78:	1141                	addi	sp,sp,-16
    3d7a:	c422                	sw	s0,8(sp)
    3d7c:	842a                	mv	s0,a0
    3d7e:	852e                	mv	a0,a1
    3d80:	8601a623          	sw	zero,-1940(gp) # 20000214 <errno>
    3d84:	c606                	sw	ra,12(sp)
    3d86:	a9cff0ef          	jal	ra,3022 <_sbrk>
    3d8a:	57fd                	li	a5,-1
    3d8c:	00f51663          	bne	a0,a5,3d98 <_sbrk_r+0x20>
    3d90:	86c1a783          	lw	a5,-1940(gp) # 20000214 <errno>
    3d94:	c391                	beqz	a5,3d98 <_sbrk_r+0x20>
    3d96:	c01c                	sw	a5,0(s0)
    3d98:	40b2                	lw	ra,12(sp)
    3d9a:	4422                	lw	s0,8(sp)
    3d9c:	0141                	addi	sp,sp,16
    3d9e:	8082                	ret

00003da0 <__sread>:
    3da0:	1141                	addi	sp,sp,-16
    3da2:	c422                	sw	s0,8(sp)
    3da4:	842e                	mv	s0,a1
    3da6:	00e59583          	lh	a1,14(a1)
    3daa:	c606                	sw	ra,12(sp)
    3dac:	2b31                	jal	42c8 <_read_r>
    3dae:	00054963          	bltz	a0,3dc0 <__sread+0x20>
    3db2:	487c                	lw	a5,84(s0)
    3db4:	97aa                	add	a5,a5,a0
    3db6:	c87c                	sw	a5,84(s0)
    3db8:	40b2                	lw	ra,12(sp)
    3dba:	4422                	lw	s0,8(sp)
    3dbc:	0141                	addi	sp,sp,16
    3dbe:	8082                	ret
    3dc0:	245e                	lhu	a5,12(s0)
    3dc2:	777d                	lui	a4,0xfffff
    3dc4:	177d                	addi	a4,a4,-1 # ffffefff <_eusrstack+0xdfff9fff>
    3dc6:	8ff9                	and	a5,a5,a4
    3dc8:	a45e                	sh	a5,12(s0)
    3dca:	b7fd                	j	3db8 <__sread+0x18>

00003dcc <__swrite>:
    3dcc:	25de                	lhu	a5,12(a1)
    3dce:	1101                	addi	sp,sp,-32
    3dd0:	cc22                	sw	s0,24(sp)
    3dd2:	ca26                	sw	s1,20(sp)
    3dd4:	c84a                	sw	s2,16(sp)
    3dd6:	c64e                	sw	s3,12(sp)
    3dd8:	ce06                	sw	ra,28(sp)
    3dda:	1007f793          	andi	a5,a5,256
    3dde:	84aa                	mv	s1,a0
    3de0:	842e                	mv	s0,a1
    3de2:	8932                	mv	s2,a2
    3de4:	89b6                	mv	s3,a3
    3de6:	c791                	beqz	a5,3df2 <__swrite+0x26>
    3de8:	00e59583          	lh	a1,14(a1)
    3dec:	4689                	li	a3,2
    3dee:	4601                	li	a2,0
    3df0:	28ed                	jal	3eea <_lseek_r>
    3df2:	245e                	lhu	a5,12(s0)
    3df4:	777d                	lui	a4,0xfffff
    3df6:	177d                	addi	a4,a4,-1 # ffffefff <_eusrstack+0xdfff9fff>
    3df8:	8ff9                	and	a5,a5,a4
    3dfa:	00e41583          	lh	a1,14(s0)
    3dfe:	a45e                	sh	a5,12(s0)
    3e00:	4462                	lw	s0,24(sp)
    3e02:	40f2                	lw	ra,28(sp)
    3e04:	86ce                	mv	a3,s3
    3e06:	864a                	mv	a2,s2
    3e08:	49b2                	lw	s3,12(sp)
    3e0a:	4942                	lw	s2,16(sp)
    3e0c:	8526                	mv	a0,s1
    3e0e:	44d2                	lw	s1,20(sp)
    3e10:	6105                	addi	sp,sp,32
    3e12:	a825                	j	3e4a <_write_r>

00003e14 <__sseek>:
    3e14:	1141                	addi	sp,sp,-16
    3e16:	c422                	sw	s0,8(sp)
    3e18:	842e                	mv	s0,a1
    3e1a:	00e59583          	lh	a1,14(a1)
    3e1e:	c606                	sw	ra,12(sp)
    3e20:	20e9                	jal	3eea <_lseek_r>
    3e22:	577d                	li	a4,-1
    3e24:	245e                	lhu	a5,12(s0)
    3e26:	00e51a63          	bne	a0,a4,3e3a <__sseek+0x26>
    3e2a:	777d                	lui	a4,0xfffff
    3e2c:	177d                	addi	a4,a4,-1 # ffffefff <_eusrstack+0xdfff9fff>
    3e2e:	8ff9                	and	a5,a5,a4
    3e30:	a45e                	sh	a5,12(s0)
    3e32:	40b2                	lw	ra,12(sp)
    3e34:	4422                	lw	s0,8(sp)
    3e36:	0141                	addi	sp,sp,16
    3e38:	8082                	ret
    3e3a:	6705                	lui	a4,0x1
    3e3c:	8fd9                	or	a5,a5,a4
    3e3e:	a45e                	sh	a5,12(s0)
    3e40:	c868                	sw	a0,84(s0)
    3e42:	bfc5                	j	3e32 <__sseek+0x1e>

00003e44 <__sclose>:
    3e44:	00e59583          	lh	a1,14(a1)
    3e48:	a03d                	j	3e76 <_close_r>

00003e4a <_write_r>:
    3e4a:	1141                	addi	sp,sp,-16
    3e4c:	c422                	sw	s0,8(sp)
    3e4e:	842a                	mv	s0,a0
    3e50:	852e                	mv	a0,a1
    3e52:	85b2                	mv	a1,a2
    3e54:	8636                	mv	a2,a3
    3e56:	8601a623          	sw	zero,-1940(gp) # 20000214 <errno>
    3e5a:	c606                	sw	ra,12(sp)
    3e5c:	950ff0ef          	jal	ra,2fac <_write>
    3e60:	57fd                	li	a5,-1
    3e62:	00f51663          	bne	a0,a5,3e6e <_write_r+0x24>
    3e66:	86c1a783          	lw	a5,-1940(gp) # 20000214 <errno>
    3e6a:	c391                	beqz	a5,3e6e <_write_r+0x24>
    3e6c:	c01c                	sw	a5,0(s0)
    3e6e:	40b2                	lw	ra,12(sp)
    3e70:	4422                	lw	s0,8(sp)
    3e72:	0141                	addi	sp,sp,16
    3e74:	8082                	ret

00003e76 <_close_r>:
    3e76:	1141                	addi	sp,sp,-16
    3e78:	c422                	sw	s0,8(sp)
    3e7a:	842a                	mv	s0,a0
    3e7c:	852e                	mv	a0,a1
    3e7e:	8601a623          	sw	zero,-1940(gp) # 20000214 <errno>
    3e82:	c606                	sw	ra,12(sp)
    3e84:	21bd                	jal	42f2 <_close>
    3e86:	57fd                	li	a5,-1
    3e88:	00f51663          	bne	a0,a5,3e94 <_close_r+0x1e>
    3e8c:	86c1a783          	lw	a5,-1940(gp) # 20000214 <errno>
    3e90:	c391                	beqz	a5,3e94 <_close_r+0x1e>
    3e92:	c01c                	sw	a5,0(s0)
    3e94:	40b2                	lw	ra,12(sp)
    3e96:	4422                	lw	s0,8(sp)
    3e98:	0141                	addi	sp,sp,16
    3e9a:	8082                	ret

00003e9c <_fstat_r>:
    3e9c:	1141                	addi	sp,sp,-16
    3e9e:	c422                	sw	s0,8(sp)
    3ea0:	842a                	mv	s0,a0
    3ea2:	852e                	mv	a0,a1
    3ea4:	85b2                	mv	a1,a2
    3ea6:	8601a623          	sw	zero,-1940(gp) # 20000214 <errno>
    3eaa:	c606                	sw	ra,12(sp)
    3eac:	2989                	jal	42fe <_fstat>
    3eae:	57fd                	li	a5,-1
    3eb0:	00f51663          	bne	a0,a5,3ebc <_fstat_r+0x20>
    3eb4:	86c1a783          	lw	a5,-1940(gp) # 20000214 <errno>
    3eb8:	c391                	beqz	a5,3ebc <_fstat_r+0x20>
    3eba:	c01c                	sw	a5,0(s0)
    3ebc:	40b2                	lw	ra,12(sp)
    3ebe:	4422                	lw	s0,8(sp)
    3ec0:	0141                	addi	sp,sp,16
    3ec2:	8082                	ret

00003ec4 <_isatty_r>:
    3ec4:	1141                	addi	sp,sp,-16
    3ec6:	c422                	sw	s0,8(sp)
    3ec8:	842a                	mv	s0,a0
    3eca:	852e                	mv	a0,a1
    3ecc:	8601a623          	sw	zero,-1940(gp) # 20000214 <errno>
    3ed0:	c606                	sw	ra,12(sp)
    3ed2:	2925                	jal	430a <_isatty>
    3ed4:	57fd                	li	a5,-1
    3ed6:	00f51663          	bne	a0,a5,3ee2 <_isatty_r+0x1e>
    3eda:	86c1a783          	lw	a5,-1940(gp) # 20000214 <errno>
    3ede:	c391                	beqz	a5,3ee2 <_isatty_r+0x1e>
    3ee0:	c01c                	sw	a5,0(s0)
    3ee2:	40b2                	lw	ra,12(sp)
    3ee4:	4422                	lw	s0,8(sp)
    3ee6:	0141                	addi	sp,sp,16
    3ee8:	8082                	ret

00003eea <_lseek_r>:
    3eea:	1141                	addi	sp,sp,-16
    3eec:	c422                	sw	s0,8(sp)
    3eee:	842a                	mv	s0,a0
    3ef0:	852e                	mv	a0,a1
    3ef2:	85b2                	mv	a1,a2
    3ef4:	8636                	mv	a2,a3
    3ef6:	8601a623          	sw	zero,-1940(gp) # 20000214 <errno>
    3efa:	c606                	sw	ra,12(sp)
    3efc:	2929                	jal	4316 <_lseek>
    3efe:	57fd                	li	a5,-1
    3f00:	00f51663          	bne	a0,a5,3f0c <_lseek_r+0x22>
    3f04:	86c1a783          	lw	a5,-1940(gp) # 20000214 <errno>
    3f08:	c391                	beqz	a5,3f0c <_lseek_r+0x22>
    3f0a:	c01c                	sw	a5,0(s0)
    3f0c:	40b2                	lw	ra,12(sp)
    3f0e:	4422                	lw	s0,8(sp)
    3f10:	0141                	addi	sp,sp,16
    3f12:	8082                	ret

00003f14 <memchr>:
    3f14:	0ff5f593          	zext.b	a1,a1
    3f18:	962a                	add	a2,a2,a0
    3f1a:	00c51463          	bne	a0,a2,3f22 <memchr+0xe>
    3f1e:	4501                	li	a0,0
    3f20:	8082                	ret
    3f22:	211c                	lbu	a5,0(a0)
    3f24:	feb78ee3          	beq	a5,a1,3f20 <memchr+0xc>
    3f28:	0505                	addi	a0,a0,1
    3f2a:	bfc5                	j	3f1a <memchr+0x6>

00003f2c <__malloc_lock>:
    3f2c:	85818513          	addi	a0,gp,-1960 # 20000200 <__lock___malloc_recursive_mutex>
    3f30:	83bff06f          	j	376a <__retarget_lock_acquire_recursive>

00003f34 <__malloc_unlock>:
    3f34:	85818513          	addi	a0,gp,-1960 # 20000200 <__lock___malloc_recursive_mutex>
    3f38:	835ff06f          	j	376c <__retarget_lock_release_recursive>

00003f3c <_printf_common>:
    3f3c:	7179                	addi	sp,sp,-48
    3f3e:	ca56                	sw	s5,20(sp)
    3f40:	499c                	lw	a5,16(a1)
    3f42:	8aba                	mv	s5,a4
    3f44:	4598                	lw	a4,8(a1)
    3f46:	d422                	sw	s0,40(sp)
    3f48:	d04a                	sw	s2,32(sp)
    3f4a:	ce4e                	sw	s3,28(sp)
    3f4c:	cc52                	sw	s4,24(sp)
    3f4e:	d606                	sw	ra,44(sp)
    3f50:	d226                	sw	s1,36(sp)
    3f52:	c85a                	sw	s6,16(sp)
    3f54:	c65e                	sw	s7,12(sp)
    3f56:	89aa                	mv	s3,a0
    3f58:	842e                	mv	s0,a1
    3f5a:	8932                	mv	s2,a2
    3f5c:	8a36                	mv	s4,a3
    3f5e:	00e7d363          	bge	a5,a4,3f64 <_printf_common+0x28>
    3f62:	87ba                	mv	a5,a4
    3f64:	00f92023          	sw	a5,0(s2)
    3f68:	04344703          	lbu	a4,67(s0)
    3f6c:	c701                	beqz	a4,3f74 <_printf_common+0x38>
    3f6e:	0785                	addi	a5,a5,1
    3f70:	00f92023          	sw	a5,0(s2)
    3f74:	401c                	lw	a5,0(s0)
    3f76:	0207f793          	andi	a5,a5,32
    3f7a:	c791                	beqz	a5,3f86 <_printf_common+0x4a>
    3f7c:	00092783          	lw	a5,0(s2)
    3f80:	0789                	addi	a5,a5,2
    3f82:	00f92023          	sw	a5,0(s2)
    3f86:	4004                	lw	s1,0(s0)
    3f88:	8899                	andi	s1,s1,6
    3f8a:	e891                	bnez	s1,3f9e <_printf_common+0x62>
    3f8c:	01940b13          	addi	s6,s0,25
    3f90:	5bfd                	li	s7,-1
    3f92:	445c                	lw	a5,12(s0)
    3f94:	00092703          	lw	a4,0(s2)
    3f98:	8f99                	sub	a5,a5,a4
    3f9a:	04f4cc63          	blt	s1,a5,3ff2 <_printf_common+0xb6>
    3f9e:	04344783          	lbu	a5,67(s0)
    3fa2:	00f036b3          	snez	a3,a5
    3fa6:	401c                	lw	a5,0(s0)
    3fa8:	0207f793          	andi	a5,a5,32
    3fac:	eba5                	bnez	a5,401c <_printf_common+0xe0>
    3fae:	04340613          	addi	a2,s0,67
    3fb2:	85d2                	mv	a1,s4
    3fb4:	854e                	mv	a0,s3
    3fb6:	9a82                	jalr	s5
    3fb8:	57fd                	li	a5,-1
    3fba:	04f50363          	beq	a0,a5,4000 <_printf_common+0xc4>
    3fbe:	401c                	lw	a5,0(s0)
    3fc0:	4711                	li	a4,4
    3fc2:	4481                	li	s1,0
    3fc4:	8b99                	andi	a5,a5,6
    3fc6:	00e79963          	bne	a5,a4,3fd8 <_printf_common+0x9c>
    3fca:	4444                	lw	s1,12(s0)
    3fcc:	00092783          	lw	a5,0(s2)
    3fd0:	8c9d                	sub	s1,s1,a5
    3fd2:	0004d363          	bgez	s1,3fd8 <_printf_common+0x9c>
    3fd6:	4481                	li	s1,0
    3fd8:	441c                	lw	a5,8(s0)
    3fda:	4818                	lw	a4,16(s0)
    3fdc:	00f75463          	bge	a4,a5,3fe4 <_printf_common+0xa8>
    3fe0:	8f99                	sub	a5,a5,a4
    3fe2:	94be                	add	s1,s1,a5
    3fe4:	4901                	li	s2,0
    3fe6:	0469                	addi	s0,s0,26
    3fe8:	5b7d                	li	s6,-1
    3fea:	05249863          	bne	s1,s2,403a <_printf_common+0xfe>
    3fee:	4501                	li	a0,0
    3ff0:	a809                	j	4002 <_printf_common+0xc6>
    3ff2:	4685                	li	a3,1
    3ff4:	865a                	mv	a2,s6
    3ff6:	85d2                	mv	a1,s4
    3ff8:	854e                	mv	a0,s3
    3ffa:	9a82                	jalr	s5
    3ffc:	01751e63          	bne	a0,s7,4018 <_printf_common+0xdc>
    4000:	557d                	li	a0,-1
    4002:	50b2                	lw	ra,44(sp)
    4004:	5422                	lw	s0,40(sp)
    4006:	5492                	lw	s1,36(sp)
    4008:	5902                	lw	s2,32(sp)
    400a:	49f2                	lw	s3,28(sp)
    400c:	4a62                	lw	s4,24(sp)
    400e:	4ad2                	lw	s5,20(sp)
    4010:	4b42                	lw	s6,16(sp)
    4012:	4bb2                	lw	s7,12(sp)
    4014:	6145                	addi	sp,sp,48
    4016:	8082                	ret
    4018:	0485                	addi	s1,s1,1
    401a:	bfa5                	j	3f92 <_printf_common+0x56>
    401c:	00d40733          	add	a4,s0,a3
    4020:	03000613          	li	a2,48
    4024:	04c701a3          	sb	a2,67(a4) # 1043 <USBFS_IRQHandler+0x7ab>
    4028:	04544703          	lbu	a4,69(s0)
    402c:	00168793          	addi	a5,a3,1
    4030:	97a2                	add	a5,a5,s0
    4032:	0689                	addi	a3,a3,2
    4034:	04e781a3          	sb	a4,67(a5)
    4038:	bf9d                	j	3fae <_printf_common+0x72>
    403a:	4685                	li	a3,1
    403c:	8622                	mv	a2,s0
    403e:	85d2                	mv	a1,s4
    4040:	854e                	mv	a0,s3
    4042:	9a82                	jalr	s5
    4044:	fb650ee3          	beq	a0,s6,4000 <_printf_common+0xc4>
    4048:	0905                	addi	s2,s2,1
    404a:	b745                	j	3fea <_printf_common+0xae>

0000404c <_printf_i>:
    404c:	7179                	addi	sp,sp,-48
    404e:	d422                	sw	s0,40(sp)
    4050:	d04a                	sw	s2,32(sp)
    4052:	ce4e                	sw	s3,28(sp)
    4054:	cc52                	sw	s4,24(sp)
    4056:	d606                	sw	ra,44(sp)
    4058:	d226                	sw	s1,36(sp)
    405a:	ca56                	sw	s5,20(sp)
    405c:	c85a                	sw	s6,16(sp)
    405e:	0185c803          	lbu	a6,24(a1)
    4062:	07800793          	li	a5,120
    4066:	892a                	mv	s2,a0
    4068:	842e                	mv	s0,a1
    406a:	89b2                	mv	s3,a2
    406c:	8a36                	mv	s4,a3
    406e:	0307e263          	bltu	a5,a6,4092 <_printf_i+0x46>
    4072:	06200793          	li	a5,98
    4076:	04358693          	addi	a3,a1,67
    407a:	0307e163          	bltu	a5,a6,409c <_printf_i+0x50>
    407e:	1c080c63          	beqz	a6,4256 <_printf_i+0x20a>
    4082:	05800793          	li	a5,88
    4086:	00000617          	auipc	a2,0x0
    408a:	67260613          	addi	a2,a2,1650 # 46f8 <__sf_fake_stdin+0x34>
    408e:	14f80863          	beq	a6,a5,41de <_printf_i+0x192>
    4092:	04240493          	addi	s1,s0,66
    4096:	05040123          	sb	a6,66(s0)
    409a:	a815                	j	40ce <_printf_i+0x82>
    409c:	f9d80793          	addi	a5,a6,-99
    40a0:	0ff7f793          	zext.b	a5,a5
    40a4:	4655                	li	a2,21
    40a6:	fef666e3          	bltu	a2,a5,4092 <_printf_i+0x46>
    40aa:	00000617          	auipc	a2,0x0
    40ae:	67660613          	addi	a2,a2,1654 # 4720 <__sf_fake_stdin+0x5c>
    40b2:	078a                	slli	a5,a5,0x2
    40b4:	97b2                	add	a5,a5,a2
    40b6:	439c                	lw	a5,0(a5)
    40b8:	97b2                	add	a5,a5,a2
    40ba:	8782                	jr	a5
    40bc:	431c                	lw	a5,0(a4)
    40be:	04258493          	addi	s1,a1,66
    40c2:	00478693          	addi	a3,a5,4
    40c6:	439c                	lw	a5,0(a5)
    40c8:	c314                	sw	a3,0(a4)
    40ca:	04f58123          	sb	a5,66(a1)
    40ce:	4785                	li	a5,1
    40d0:	a26d                	j	427a <_printf_i+0x22e>
    40d2:	4190                	lw	a2,0(a1)
    40d4:	431c                	lw	a5,0(a4)
    40d6:	08067513          	andi	a0,a2,128
    40da:	00478593          	addi	a1,a5,4
    40de:	c129                	beqz	a0,4120 <_printf_i+0xd4>
    40e0:	439c                	lw	a5,0(a5)
    40e2:	c30c                	sw	a1,0(a4)
    40e4:	4058                	lw	a4,4(s0)
    40e6:	1207df63          	bgez	a5,4224 <_printf_i+0x1d8>
    40ea:	02d00593          	li	a1,45
    40ee:	04b401a3          	sb	a1,67(s0)
    40f2:	c418                	sw	a4,8(s0)
    40f4:	02075e63          	bgez	a4,4130 <_printf_i+0xe4>
    40f8:	40f007b3          	neg	a5,a5
    40fc:	00000617          	auipc	a2,0x0
    4100:	5fc60613          	addi	a2,a2,1532 # 46f8 <__sf_fake_stdin+0x34>
    4104:	4829                	li	a6,10
    4106:	84b6                	mv	s1,a3
    4108:	0307f733          	remu	a4,a5,a6
    410c:	14fd                	addi	s1,s1,-1
    410e:	9732                	add	a4,a4,a2
    4110:	2318                	lbu	a4,0(a4)
    4112:	a098                	sb	a4,0(s1)
    4114:	873e                	mv	a4,a5
    4116:	0307d7b3          	divu	a5,a5,a6
    411a:	ff0777e3          	bgeu	a4,a6,4108 <_printf_i+0xbc>
    411e:	a085                	j	417e <_printf_i+0x132>
    4120:	439c                	lw	a5,0(a5)
    4122:	04067513          	andi	a0,a2,64
    4126:	c30c                	sw	a1,0(a4)
    4128:	dd55                	beqz	a0,40e4 <_printf_i+0x98>
    412a:	07c2                	slli	a5,a5,0x10
    412c:	87c1                	srai	a5,a5,0x10
    412e:	bf5d                	j	40e4 <_printf_i+0x98>
    4130:	9a6d                	andi	a2,a2,-5
    4132:	c010                	sw	a2,0(s0)
    4134:	b7d1                	j	40f8 <_printf_i+0xac>
    4136:	4190                	lw	a2,0(a1)
    4138:	431c                	lw	a5,0(a4)
    413a:	08067513          	andi	a0,a2,128
    413e:	00478593          	addi	a1,a5,4
    4142:	c501                	beqz	a0,414a <_printf_i+0xfe>
    4144:	c30c                	sw	a1,0(a4)
    4146:	439c                	lw	a5,0(a5)
    4148:	a031                	j	4154 <_printf_i+0x108>
    414a:	04067613          	andi	a2,a2,64
    414e:	c30c                	sw	a1,0(a4)
    4150:	da7d                	beqz	a2,4146 <_printf_i+0xfa>
    4152:	239e                	lhu	a5,0(a5)
    4154:	06f00713          	li	a4,111
    4158:	00000617          	auipc	a2,0x0
    415c:	5a060613          	addi	a2,a2,1440 # 46f8 <__sf_fake_stdin+0x34>
    4160:	0ce81063          	bne	a6,a4,4220 <_printf_i+0x1d4>
    4164:	4821                	li	a6,8
    4166:	040401a3          	sb	zero,67(s0)
    416a:	4058                	lw	a4,4(s0)
    416c:	c418                	sw	a4,8(s0)
    416e:	f8074ce3          	bltz	a4,4106 <_printf_i+0xba>
    4172:	400c                	lw	a1,0(s0)
    4174:	99ed                	andi	a1,a1,-5
    4176:	c00c                	sw	a1,0(s0)
    4178:	f7d9                	bnez	a5,4106 <_printf_i+0xba>
    417a:	84b6                	mv	s1,a3
    417c:	f749                	bnez	a4,4106 <_printf_i+0xba>
    417e:	47a1                	li	a5,8
    4180:	00f81e63          	bne	a6,a5,419c <_printf_i+0x150>
    4184:	401c                	lw	a5,0(s0)
    4186:	8b85                	andi	a5,a5,1
    4188:	cb91                	beqz	a5,419c <_printf_i+0x150>
    418a:	4058                	lw	a4,4(s0)
    418c:	481c                	lw	a5,16(s0)
    418e:	00e7c763          	blt	a5,a4,419c <_printf_i+0x150>
    4192:	03000793          	li	a5,48
    4196:	fef48fa3          	sb	a5,-1(s1)
    419a:	14fd                	addi	s1,s1,-1
    419c:	8e85                	sub	a3,a3,s1
    419e:	c814                	sw	a3,16(s0)
    41a0:	8752                	mv	a4,s4
    41a2:	86ce                	mv	a3,s3
    41a4:	0070                	addi	a2,sp,12
    41a6:	85a2                	mv	a1,s0
    41a8:	854a                	mv	a0,s2
    41aa:	d93ff0ef          	jal	ra,3f3c <_printf_common>
    41ae:	5afd                	li	s5,-1
    41b0:	0d551963          	bne	a0,s5,4282 <_printf_i+0x236>
    41b4:	557d                	li	a0,-1
    41b6:	50b2                	lw	ra,44(sp)
    41b8:	5422                	lw	s0,40(sp)
    41ba:	5492                	lw	s1,36(sp)
    41bc:	5902                	lw	s2,32(sp)
    41be:	49f2                	lw	s3,28(sp)
    41c0:	4a62                	lw	s4,24(sp)
    41c2:	4ad2                	lw	s5,20(sp)
    41c4:	4b42                	lw	s6,16(sp)
    41c6:	6145                	addi	sp,sp,48
    41c8:	8082                	ret
    41ca:	419c                	lw	a5,0(a1)
    41cc:	0207e793          	ori	a5,a5,32
    41d0:	c19c                	sw	a5,0(a1)
    41d2:	07800813          	li	a6,120
    41d6:	00000617          	auipc	a2,0x0
    41da:	53660613          	addi	a2,a2,1334 # 470c <__sf_fake_stdin+0x48>
    41de:	050402a3          	sb	a6,69(s0)
    41e2:	400c                	lw	a1,0(s0)
    41e4:	431c                	lw	a5,0(a4)
    41e6:	0805f813          	andi	a6,a1,128
    41ea:	00478513          	addi	a0,a5,4
    41ee:	00080563          	beqz	a6,41f8 <_printf_i+0x1ac>
    41f2:	c308                	sw	a0,0(a4)
    41f4:	439c                	lw	a5,0(a5)
    41f6:	a039                	j	4204 <_printf_i+0x1b8>
    41f8:	0405f813          	andi	a6,a1,64
    41fc:	c308                	sw	a0,0(a4)
    41fe:	fe080be3          	beqz	a6,41f4 <_printf_i+0x1a8>
    4202:	239e                	lhu	a5,0(a5)
    4204:	0015f713          	andi	a4,a1,1
    4208:	c701                	beqz	a4,4210 <_printf_i+0x1c4>
    420a:	0205e593          	ori	a1,a1,32
    420e:	c00c                	sw	a1,0(s0)
    4210:	c399                	beqz	a5,4216 <_printf_i+0x1ca>
    4212:	4841                	li	a6,16
    4214:	bf89                	j	4166 <_printf_i+0x11a>
    4216:	4018                	lw	a4,0(s0)
    4218:	fdf77713          	andi	a4,a4,-33
    421c:	c018                	sw	a4,0(s0)
    421e:	bfd5                	j	4212 <_printf_i+0x1c6>
    4220:	4829                	li	a6,10
    4222:	b791                	j	4166 <_printf_i+0x11a>
    4224:	00000617          	auipc	a2,0x0
    4228:	4d460613          	addi	a2,a2,1236 # 46f8 <__sf_fake_stdin+0x34>
    422c:	4829                	li	a6,10
    422e:	bf35                	j	416a <_printf_i+0x11e>
    4230:	4190                	lw	a2,0(a1)
    4232:	431c                	lw	a5,0(a4)
    4234:	49cc                	lw	a1,20(a1)
    4236:	08067813          	andi	a6,a2,128
    423a:	00478513          	addi	a0,a5,4
    423e:	00080663          	beqz	a6,424a <_printf_i+0x1fe>
    4242:	c308                	sw	a0,0(a4)
    4244:	439c                	lw	a5,0(a5)
    4246:	c38c                	sw	a1,0(a5)
    4248:	a039                	j	4256 <_printf_i+0x20a>
    424a:	c308                	sw	a0,0(a4)
    424c:	04067613          	andi	a2,a2,64
    4250:	439c                	lw	a5,0(a5)
    4252:	da75                	beqz	a2,4246 <_printf_i+0x1fa>
    4254:	a38e                	sh	a1,0(a5)
    4256:	00042823          	sw	zero,16(s0)
    425a:	84b6                	mv	s1,a3
    425c:	b791                	j	41a0 <_printf_i+0x154>
    425e:	431c                	lw	a5,0(a4)
    4260:	41d0                	lw	a2,4(a1)
    4262:	4581                	li	a1,0
    4264:	00478693          	addi	a3,a5,4
    4268:	c314                	sw	a3,0(a4)
    426a:	4384                	lw	s1,0(a5)
    426c:	8526                	mv	a0,s1
    426e:	ca7ff0ef          	jal	ra,3f14 <memchr>
    4272:	c119                	beqz	a0,4278 <_printf_i+0x22c>
    4274:	8d05                	sub	a0,a0,s1
    4276:	c048                	sw	a0,4(s0)
    4278:	405c                	lw	a5,4(s0)
    427a:	c81c                	sw	a5,16(s0)
    427c:	040401a3          	sb	zero,67(s0)
    4280:	b705                	j	41a0 <_printf_i+0x154>
    4282:	4814                	lw	a3,16(s0)
    4284:	8626                	mv	a2,s1
    4286:	85ce                	mv	a1,s3
    4288:	854a                	mv	a0,s2
    428a:	9a02                	jalr	s4
    428c:	f35504e3          	beq	a0,s5,41b4 <_printf_i+0x168>
    4290:	401c                	lw	a5,0(s0)
    4292:	8b89                	andi	a5,a5,2
    4294:	e78d                	bnez	a5,42be <_printf_i+0x272>
    4296:	47b2                	lw	a5,12(sp)
    4298:	4448                	lw	a0,12(s0)
    429a:	f0f55ee3          	bge	a0,a5,41b6 <_printf_i+0x16a>
    429e:	853e                	mv	a0,a5
    42a0:	bf19                	j	41b6 <_printf_i+0x16a>
    42a2:	4685                	li	a3,1
    42a4:	8656                	mv	a2,s5
    42a6:	85ce                	mv	a1,s3
    42a8:	854a                	mv	a0,s2
    42aa:	9a02                	jalr	s4
    42ac:	f16504e3          	beq	a0,s6,41b4 <_printf_i+0x168>
    42b0:	0485                	addi	s1,s1,1
    42b2:	445c                	lw	a5,12(s0)
    42b4:	4732                	lw	a4,12(sp)
    42b6:	8f99                	sub	a5,a5,a4
    42b8:	fef4c5e3          	blt	s1,a5,42a2 <_printf_i+0x256>
    42bc:	bfe9                	j	4296 <_printf_i+0x24a>
    42be:	4481                	li	s1,0
    42c0:	01940a93          	addi	s5,s0,25
    42c4:	5b7d                	li	s6,-1
    42c6:	b7f5                	j	42b2 <_printf_i+0x266>

000042c8 <_read_r>:
    42c8:	1141                	addi	sp,sp,-16
    42ca:	c422                	sw	s0,8(sp)
    42cc:	842a                	mv	s0,a0
    42ce:	852e                	mv	a0,a1
    42d0:	85b2                	mv	a1,a2
    42d2:	8636                	mv	a2,a3
    42d4:	8601a623          	sw	zero,-1940(gp) # 20000214 <errno>
    42d8:	c606                	sw	ra,12(sp)
    42da:	20a1                	jal	4322 <_read>
    42dc:	57fd                	li	a5,-1
    42de:	00f51663          	bne	a0,a5,42ea <_read_r+0x22>
    42e2:	86c1a783          	lw	a5,-1940(gp) # 20000214 <errno>
    42e6:	c391                	beqz	a5,42ea <_read_r+0x22>
    42e8:	c01c                	sw	a5,0(s0)
    42ea:	40b2                	lw	ra,12(sp)
    42ec:	4422                	lw	s0,8(sp)
    42ee:	0141                	addi	sp,sp,16
    42f0:	8082                	ret

000042f2 <_close>:
    42f2:	05800793          	li	a5,88
    42f6:	86f1a623          	sw	a5,-1940(gp) # 20000214 <errno>
    42fa:	557d                	li	a0,-1
    42fc:	8082                	ret

000042fe <_fstat>:
    42fe:	05800793          	li	a5,88
    4302:	86f1a623          	sw	a5,-1940(gp) # 20000214 <errno>
    4306:	557d                	li	a0,-1
    4308:	8082                	ret

0000430a <_isatty>:
    430a:	05800793          	li	a5,88
    430e:	86f1a623          	sw	a5,-1940(gp) # 20000214 <errno>
    4312:	4501                	li	a0,0
    4314:	8082                	ret

00004316 <_lseek>:
    4316:	05800793          	li	a5,88
    431a:	86f1a623          	sw	a5,-1940(gp) # 20000214 <errno>
    431e:	557d                	li	a0,-1
    4320:	8082                	ret

00004322 <_read>:
    4322:	05800793          	li	a5,88
    4326:	86f1a623          	sw	a5,-1940(gp) # 20000214 <errno>
    432a:	557d                	li	a0,-1
    432c:	8082                	ret
    432e:	0000                	unimp
    4330:	74737953          	.4byte	0x74737953
    4334:	6d65                	lui	s10,0x19
    4336:	3a6b6c43          	.4byte	0x3a6b6c43
    433a:	6425                	lui	s0,0x9
    433c:	0a0d                	addi	s4,s4,3
    433e:	0000                	unimp
    4340:	70696843          	.4byte	0x70696843
    4344:	4449                	li	s0,18
    4346:	253a                	lhu	a4,10(a0)
    4348:	3830                	lbu	a2,19(s0)
    434a:	0d78                	addi	a4,sp,668
    434c:	000a                	c.slli	zero,0x2
    434e:	0000                	unimp
    4350:	5320424b          	.4byte	0x5320424b
    4354:	206e6163          	bltu	t3,t1,4556 <_read+0x234>
    4358:	6e49                	lui	t3,0x12
    435a:	7469                	lui	s0,0xffffa
    435c:	4f20                	lw	s0,88(a4)
    435e:	000d214b          	.4byte	0xd214b
    4362:	0000                	unimp
    4364:	4954                	lw	a3,20(a0)
    4366:	334d                	jal	4108 <_printf_i+0xbc>
    4368:	4920                	lw	s0,80(a0)
    436a:	696e                	.2byte	0x696e
    436c:	2074                	lbu	a3,6(s0)
    436e:	0d214b4f          	.4byte	0xd214b4f
    4372:	0000                	unimp
    4374:	2d2e                	lhu	a1,26(a0)
    4376:	0000                	unimp
    4378:	2e2d                	jal	46b2 <__sf_fake_stdout+0xe>
    437a:	2e2e                	lhu	a1,26(a2)
    437c:	0000                	unimp
    437e:	0000                	unimp
    4380:	2e2d                	jal	46ba <__sf_fake_stdout+0x16>
    4382:	2e2d                	jal	46bc <__sf_fake_stdout+0x18>
    4384:	0000                	unimp
    4386:	0000                	unimp
    4388:	2e2d                	jal	46c2 <__sf_fake_stdout+0x1e>
    438a:	002e                	c.slli	zero,0xb
    438c:	002e                	c.slli	zero,0xb
    438e:	0000                	unimp
    4390:	2e2e                	lhu	a1,26(a2)
    4392:	2e2d                	jal	46cc <__sf_fake_stdin+0x8>
    4394:	0000                	unimp
    4396:	0000                	unimp
    4398:	2d2d                	jal	49d2 <_data_lma+0x25a>
    439a:	002e                	c.slli	zero,0xb
    439c:	2e2e                	lhu	a1,26(a2)
    439e:	2e2e                	lhu	a1,26(a2)
    43a0:	0000                	unimp
    43a2:	0000                	unimp
    43a4:	2e2e                	lhu	a1,26(a2)
    43a6:	0000                	unimp
    43a8:	2d2e                	lhu	a1,26(a0)
    43aa:	2d2d                	jal	49e4 <_data_lma+0x26c>
    43ac:	0000                	unimp
    43ae:	0000                	unimp
    43b0:	2e2d                	jal	46ea <__sf_fake_stdin+0x26>
    43b2:	002d                	c.nop	11
    43b4:	2d2e                	lhu	a1,26(a0)
    43b6:	2e2e                	lhu	a1,26(a2)
    43b8:	0000                	unimp
    43ba:	0000                	unimp
    43bc:	2d2d                	jal	49f6 <_data_lma+0x27e>
    43be:	0000                	unimp
    43c0:	2e2d                	jal	46fa <__sf_fake_stdin+0x36>
    43c2:	0000                	unimp
    43c4:	2d2d                	jal	49fe <_data_lma+0x286>
    43c6:	002d                	c.nop	11
    43c8:	2d2e                	lhu	a1,26(a0)
    43ca:	2e2d                	jal	4704 <__sf_fake_stdin+0x40>
    43cc:	0000                	unimp
    43ce:	0000                	unimp
    43d0:	2d2d                	jal	4a0a <_data_lma+0x292>
    43d2:	2d2e                	lhu	a1,26(a0)
    43d4:	0000                	unimp
    43d6:	0000                	unimp
    43d8:	2d2e                	lhu	a1,26(a0)
    43da:	002e                	c.slli	zero,0xb
    43dc:	2e2e                	lhu	a1,26(a2)
    43de:	002e                	c.slli	zero,0xb
    43e0:	002d                	c.nop	11
    43e2:	0000                	unimp
    43e4:	2e2e                	lhu	a1,26(a2)
    43e6:	002d                	c.nop	11
    43e8:	2e2e                	lhu	a1,26(a2)
    43ea:	2d2e                	lhu	a1,26(a0)
    43ec:	0000                	unimp
    43ee:	0000                	unimp
    43f0:	2d2e                	lhu	a1,26(a0)
    43f2:	002d                	c.nop	11
    43f4:	2e2d                	jal	472e <__sf_fake_stdin+0x6a>
    43f6:	2d2e                	lhu	a1,26(a0)
    43f8:	0000                	unimp
    43fa:	0000                	unimp
    43fc:	2e2d                	jal	4736 <__sf_fake_stdin+0x72>
    43fe:	2d2d                	jal	4a38 <_data_lma+0x2c0>
    4400:	0000                	unimp
    4402:	0000                	unimp
    4404:	2d2d                	jal	4a3e <_data_lma+0x2c6>
    4406:	2e2e                	lhu	a1,26(a2)
    4408:	0000                	unimp
    440a:	0000                	unimp
    440c:	2d2d                	jal	4a46 <_data_lma+0x2ce>
    440e:	2d2d                	jal	4a48 <_data_lma+0x2d0>
    4410:	002d                	c.nop	11
    4412:	0000                	unimp
    4414:	2d2e                	lhu	a1,26(a0)
    4416:	2d2d                	jal	4a50 <_data_lma+0x2d8>
    4418:	002d                	c.nop	11
    441a:	0000                	unimp
    441c:	2e2e                	lhu	a1,26(a2)
    441e:	2d2d                	jal	4a58 <_data_lma+0x2e0>
    4420:	002d                	c.nop	11
    4422:	0000                	unimp
    4424:	2e2e                	lhu	a1,26(a2)
    4426:	2d2e                	lhu	a1,26(a0)
    4428:	002d                	c.nop	11
    442a:	0000                	unimp
    442c:	2e2e                	lhu	a1,26(a2)
    442e:	2e2e                	lhu	a1,26(a2)
    4430:	002d                	c.nop	11
    4432:	0000                	unimp
    4434:	2e2e                	lhu	a1,26(a2)
    4436:	2e2e                	lhu	a1,26(a2)
    4438:	002e                	c.slli	zero,0xb
    443a:	0000                	unimp
    443c:	2e2d                	jal	4776 <__sf_fake_stdin+0xb2>
    443e:	2e2e                	lhu	a1,26(a2)
    4440:	002e                	c.slli	zero,0xb
    4442:	0000                	unimp
    4444:	2d2d                	jal	4a7e <_data_lma+0x306>
    4446:	2e2e                	lhu	a1,26(a2)
    4448:	002e                	c.slli	zero,0xb
    444a:	0000                	unimp
    444c:	2d2d                	jal	4a86 <_data_lma+0x30e>
    444e:	2e2d                	jal	4788 <_data_lma+0x10>
    4450:	002e                	c.slli	zero,0xb
    4452:	0000                	unimp
    4454:	2d2d                	jal	4a8e <_data_lma+0x316>
    4456:	2d2d                	jal	4a90 <_data_lma+0x318>
    4458:	002e                	c.slli	zero,0xb
    445a:	0000                	unimp
    445c:	0000                	unimp
    445e:	0000                	unimp
    4460:	65656c53          	.4byte	0x65656c53
    4464:	0d70                	addi	a2,sp,668
    4466:	0000                	unimp
    4468:	656b6157          	.4byte	0x656b6157
    446c:	000d                	c.nop	3
    446e:	0000                	unimp
    4470:	069a                	slli	a3,a3,0x6
    4472:	0000                	unimp
    4474:	0590                	addi	a2,sp,704
    4476:	0000                	unimp
    4478:	05b6                	slli	a1,a1,0xd
    447a:	0000                	unimp
    447c:	05dc                	addi	a5,sp,708
    447e:	0000                	unimp
    4480:	0602                	c.slli64	a2
    4482:	0000                	unimp
    4484:	0628                	addi	a0,sp,776
    4486:	0000                	unimp
    4488:	064e                	slli	a2,a2,0x13
    448a:	0000                	unimp
    448c:	0674                	addi	a3,sp,780
    448e:	0000                	unimp
    4490:	0db4                	addi	a3,sp,728
    4492:	0000                	unimp
    4494:	0db4                	addi	a3,sp,728
    4496:	0000                	unimp
    4498:	0d14                	addi	a3,sp,656
    449a:	0000                	unimp
    449c:	0d64                	addi	s1,sp,668
    449e:	0000                	unimp
    44a0:	0db4                	addi	a3,sp,728
    44a2:	0000                	unimp
    44a4:	0db4                	addi	a3,sp,728
    44a6:	0000                	unimp
    44a8:	0db4                	addi	a3,sp,728
    44aa:	0000                	unimp
    44ac:	0db4                	addi	a3,sp,728
    44ae:	0000                	unimp
    44b0:	0db4                	addi	a3,sp,728
    44b2:	0000                	unimp
    44b4:	12ca                	slli	t0,t0,0x32
    44b6:	0000                	unimp
    44b8:	0c78                	addi	a4,sp,540
    44ba:	0000                	unimp
    44bc:	0ccc                	addi	a1,sp,596
    44be:	0000                	unimp
    44c0:	11e2                	slli	gp,gp,0x38
    44c2:	0000                	unimp
    44c4:	1022                	c.slli	zero,0x28
    44c6:	0000                	unimp
    44c8:	12c2                	slli	t0,t0,0x30
    44ca:	0000                	unimp
    44cc:	10d0                	addi	a2,sp,100
    44ce:	0000                	unimp
    44d0:	12c2                	slli	t0,t0,0x30
    44d2:	0000                	unimp
    44d4:	0fd2                	slli	t6,t6,0x14
    44d6:	0000                	unimp
    44d8:	0dda                	slli	s11,s11,0x16
    44da:	0000                	unimp
    44dc:	12c2                	slli	t0,t0,0x30
    44de:	0000                	unimp
    44e0:	0fe4                	addi	s1,sp,988
    44e2:	0000                	unimp
    44e4:	100a                	c.slli	zero,0x22
    44e6:	0000                	unimp
    44e8:	11c2                	slli	gp,gp,0x30
    44ea:	0000                	unimp
    44ec:	12ce                	slli	t0,t0,0x33
    44ee:	0000                	unimp
    44f0:	0f6a                	slli	t5,t5,0x1a
    44f2:	0000                	unimp
    44f4:	0e04                	addi	s1,sp,784
    44f6:	0000                	unimp
    44f8:	0e1c                	addi	a5,sp,784
    44fa:	0000                	unimp
    44fc:	0ed6                	slli	t4,t4,0x15
    44fe:	0000                	unimp
    4500:	0f6a                	slli	t5,t5,0x1a
    4502:	0000                	unimp
    4504:	0f6a                	slli	t5,t5,0x1a
    4506:	0000                	unimp
    4508:	0f6a                	slli	t5,t5,0x1a
    450a:	0000                	unimp
    450c:	0f6a                	slli	t5,t5,0x1a
    450e:	0000                	unimp
    4510:	0f6a                	slli	t5,t5,0x1a
    4512:	0000                	unimp
    4514:	0f6a                	slli	t5,t5,0x1a
    4516:	0000                	unimp
    4518:	0f6a                	slli	t5,t5,0x1a
    451a:	0000                	unimp
    451c:	0f6a                	slli	t5,t5,0x1a
    451e:	0000                	unimp
    4520:	0f6a                	slli	t5,t5,0x1a
    4522:	0000                	unimp
    4524:	0f6a                	slli	t5,t5,0x1a
    4526:	0000                	unimp
    4528:	0f6a                	slli	t5,t5,0x1a
    452a:	0000                	unimp
    452c:	0f6a                	slli	t5,t5,0x1a
    452e:	0000                	unimp
    4530:	0f6a                	slli	t5,t5,0x1a
    4532:	0000                	unimp
    4534:	0f6a                	slli	t5,t5,0x1a
    4536:	0000                	unimp
    4538:	0f6a                	slli	t5,t5,0x1a
    453a:	0000                	unimp
    453c:	0f6a                	slli	t5,t5,0x1a
    453e:	0000                	unimp
    4540:	0f6a                	slli	t5,t5,0x1a
    4542:	0000                	unimp
    4544:	0f6a                	slli	t5,t5,0x1a
    4546:	0000                	unimp
    4548:	0f6a                	slli	t5,t5,0x1a
    454a:	0000                	unimp
    454c:	0f6a                	slli	t5,t5,0x1a
    454e:	0000                	unimp
    4550:	0f6a                	slli	t5,t5,0x1a
    4552:	0000                	unimp
    4554:	0f6a                	slli	t5,t5,0x1a
    4556:	0000                	unimp
    4558:	0f6a                	slli	t5,t5,0x1a
    455a:	0000                	unimp
    455c:	0f6a                	slli	t5,t5,0x1a
    455e:	0000                	unimp
    4560:	0f6a                	slli	t5,t5,0x1a
    4562:	0000                	unimp
    4564:	0f6a                	slli	t5,t5,0x1a
    4566:	0000                	unimp
    4568:	0f6a                	slli	t5,t5,0x1a
    456a:	0000                	unimp
    456c:	0f6a                	slli	t5,t5,0x1a
    456e:	0000                	unimp
    4570:	0f6a                	slli	t5,t5,0x1a
    4572:	0000                	unimp
    4574:	0e46                	slli	t3,t3,0x11
    4576:	0000                	unimp
    4578:	0e8c                	addi	a1,sp,848
	...

0000457c <MyDevDescr>:
    457c:	0112 0200 0000 4000 1a86 fe00 0100 0201     .......@........
    458c:	0103 0000                                   ....

00004590 <MyCfgDescr>:
    4590:	0209 003b 0102 a000 0932 0004 0100 0103     ..;.....2.......
    45a0:	0001 2109 0111 0100 3e22 0700 8105 0803     ...!....">......
    45b0:	0a00 0409 0001 0301 0201 0900 1021 0001     ............!...
    45c0:	2201 0034 0507 0382 0008 0001               ."4.........

000045cc <KeyRepDesc>:
    45cc:	0105 0609 01a1 0705 e019 e729 0015 0125     ..........)...%.
    45dc:	0175 0895 0281 0195 0875 0181 0395 0175     u.......u.....u.
    45ec:	0805 0119 0329 0291 0595 0175 0191 0695     ....).....u.....
    45fc:	0875 ff26 0500 1907 2900 8191 c000 0000     u.&......)......

0000460c <MouseRepDesc>:
    460c:	0105 0209 01a1 0109 00a1 0905 0119 0329     ..............).
    461c:	0015 0125 0175 0395 0281 0575 0195 0181     ..%.u.....u.....
    462c:	0105 3009 3109 3809 8115 7f25 0875 0395     ...0.1.8..%.u...
    463c:	0681 c0c0                                   ....

00004640 <MyManuInfo>:
    4640:	030e 0077 0063 0068 002e 0063 006e 0000     ..w.c.h...c.n...

00004650 <MyProdInfo>:
    4650:	031a 004d 006f 0072 0073 0065 0020 004b     ..M.o.r.s.e. .K.
    4660:	0065 0079 0070 0061 0064 0000               e.y.p.a.d...

0000466c <MySerNumInfo>:
    466c:	0316 0030 0031 0032 0033 0034 0035 0036     ..0.1.2.3.4.5.6.
    467c:	0037 0038 0039 0000                         7.8.9...

00004684 <__sf_fake_stderr>:
	...

000046a4 <__sf_fake_stdout>:
	...

000046c4 <__sf_fake_stdin>:
	...
    46e4:	2d23 2b30 0020 0000 6c68 004c 6665 4567     #-0+ ...hlL.efgE
    46f4:	4746 0000 3130 3332 3534 3736 3938 4241     FG..0123456789AB
    4704:	4443 4645 0000 0000 3130 3332 3534 3736     CDEF....01234567
    4714:	3938 6261 6463 6665 0000 0000 f99c ffff     89abcdef........
    4724:	f9b2 ffff f972 ffff f972 ffff f972 ffff     ....r...r...r...
    4734:	f972 ffff f9b2 ffff f972 ffff f972 ffff     r.......r...r...
    4744:	f972 ffff f972 ffff fb10 ffff fa16 ffff     r...r...........
    4754:	faaa ffff f972 ffff f972 ffff fb3e ffff     ....r...r...>...
    4764:	f972 ffff fa16 ffff f972 ffff f972 ffff     r.......r...r...
    4774:	fab2 ffff                                   ....
